ARM GAS  C:\Users\Eemeli\AppData\Local\Temp\cccfLE7k.s 			page 1


   1              		.cpu cortex-m3
   2              		.eabi_attribute 20, 1
   3              		.eabi_attribute 21, 1
   4              		.eabi_attribute 23, 3
   5              		.eabi_attribute 24, 1
   6              		.eabi_attribute 25, 1
   7              		.eabi_attribute 26, 1
   8              		.eabi_attribute 30, 2
   9              		.eabi_attribute 34, 1
  10              		.eabi_attribute 18, 4
  11              		.file	"stm32f1xx_hal_pcd.c"
  12              		.text
  13              	.Ltext0:
  14              		.cfi_sections	.debug_frame
  15              		.section	.text.HAL_PCD_MspInit,"ax",%progbits
  16              		.align	1
  17              		.p2align 2,,3
  18              		.weak	HAL_PCD_MspInit
  19              		.arch armv7-m
  20              		.syntax unified
  21              		.thumb
  22              		.thumb_func
  23              		.fpu softvfp
  25              	HAL_PCD_MspInit:
  26              	.LVL0:
  27              	.LFB68:
  28              		.file 1 "Drivers/STM32F1xx_HAL_Driver/Src/stm32f1xx_hal_pcd.c"
   1:Drivers/STM32F1xx_HAL_Driver/Src/stm32f1xx_hal_pcd.c **** /**
   2:Drivers/STM32F1xx_HAL_Driver/Src/stm32f1xx_hal_pcd.c ****   ******************************************************************************
   3:Drivers/STM32F1xx_HAL_Driver/Src/stm32f1xx_hal_pcd.c ****   * @file    stm32f1xx_hal_pcd.c
   4:Drivers/STM32F1xx_HAL_Driver/Src/stm32f1xx_hal_pcd.c ****   * @author  MCD Application Team
   5:Drivers/STM32F1xx_HAL_Driver/Src/stm32f1xx_hal_pcd.c ****   * @brief   PCD HAL module driver.
   6:Drivers/STM32F1xx_HAL_Driver/Src/stm32f1xx_hal_pcd.c ****   *          This file provides firmware functions to manage the following 
   7:Drivers/STM32F1xx_HAL_Driver/Src/stm32f1xx_hal_pcd.c ****   *          functionalities of the USB Peripheral Controller:
   8:Drivers/STM32F1xx_HAL_Driver/Src/stm32f1xx_hal_pcd.c ****   *           + Initialization and de-initialization functions
   9:Drivers/STM32F1xx_HAL_Driver/Src/stm32f1xx_hal_pcd.c ****   *           + IO operation functions
  10:Drivers/STM32F1xx_HAL_Driver/Src/stm32f1xx_hal_pcd.c ****   *           + Peripheral Control functions 
  11:Drivers/STM32F1xx_HAL_Driver/Src/stm32f1xx_hal_pcd.c ****   *           + Peripheral State functions
  12:Drivers/STM32F1xx_HAL_Driver/Src/stm32f1xx_hal_pcd.c ****   *
  13:Drivers/STM32F1xx_HAL_Driver/Src/stm32f1xx_hal_pcd.c ****   @verbatim
  14:Drivers/STM32F1xx_HAL_Driver/Src/stm32f1xx_hal_pcd.c ****   ==============================================================================
  15:Drivers/STM32F1xx_HAL_Driver/Src/stm32f1xx_hal_pcd.c ****                     ##### How to use this driver #####
  16:Drivers/STM32F1xx_HAL_Driver/Src/stm32f1xx_hal_pcd.c ****   ==============================================================================
  17:Drivers/STM32F1xx_HAL_Driver/Src/stm32f1xx_hal_pcd.c ****     [..]
  18:Drivers/STM32F1xx_HAL_Driver/Src/stm32f1xx_hal_pcd.c ****       The PCD HAL driver can be used as follows:
  19:Drivers/STM32F1xx_HAL_Driver/Src/stm32f1xx_hal_pcd.c **** 
  20:Drivers/STM32F1xx_HAL_Driver/Src/stm32f1xx_hal_pcd.c ****      (#) Declare a PCD_HandleTypeDef handle structure, for example:
  21:Drivers/STM32F1xx_HAL_Driver/Src/stm32f1xx_hal_pcd.c ****          PCD_HandleTypeDef  hpcd;
  22:Drivers/STM32F1xx_HAL_Driver/Src/stm32f1xx_hal_pcd.c **** 
  23:Drivers/STM32F1xx_HAL_Driver/Src/stm32f1xx_hal_pcd.c ****      (#) Fill parameters of Init structure in HCD handle
  24:Drivers/STM32F1xx_HAL_Driver/Src/stm32f1xx_hal_pcd.c **** 
  25:Drivers/STM32F1xx_HAL_Driver/Src/stm32f1xx_hal_pcd.c ****      (#) Call HAL_PCD_Init() API to initialize the HCD peripheral (Core, Device core, ...)
  26:Drivers/STM32F1xx_HAL_Driver/Src/stm32f1xx_hal_pcd.c **** 
  27:Drivers/STM32F1xx_HAL_Driver/Src/stm32f1xx_hal_pcd.c ****      (#) Initialize the PCD low level resources through the HAL_PCD_MspInit() API:
  28:Drivers/STM32F1xx_HAL_Driver/Src/stm32f1xx_hal_pcd.c ****          (##) Enable the PCD/USB Low Level interface clock using the following macro
  29:Drivers/STM32F1xx_HAL_Driver/Src/stm32f1xx_hal_pcd.c ****               (+++) __HAL_RCC_USB_CLK_ENABLE(); For USB Device FS peripheral available
  30:Drivers/STM32F1xx_HAL_Driver/Src/stm32f1xx_hal_pcd.c ****                     on STM32F102xx and STM32F103xx devices
ARM GAS  C:\Users\Eemeli\AppData\Local\Temp\cccfLE7k.s 			page 2


  31:Drivers/STM32F1xx_HAL_Driver/Src/stm32f1xx_hal_pcd.c ****               (+++) __HAL_RCC_USB_OTG_FS_CLK_ENABLE(); For USB OTG FS peripheral available
  32:Drivers/STM32F1xx_HAL_Driver/Src/stm32f1xx_hal_pcd.c ****                     on STM32F105xx and STM32F107xx devices 
  33:Drivers/STM32F1xx_HAL_Driver/Src/stm32f1xx_hal_pcd.c **** 
  34:Drivers/STM32F1xx_HAL_Driver/Src/stm32f1xx_hal_pcd.c ****          (##) Initialize the related GPIO clocks
  35:Drivers/STM32F1xx_HAL_Driver/Src/stm32f1xx_hal_pcd.c ****          (##) Configure PCD pin-out
  36:Drivers/STM32F1xx_HAL_Driver/Src/stm32f1xx_hal_pcd.c ****          (##) Configure PCD NVIC interrupt
  37:Drivers/STM32F1xx_HAL_Driver/Src/stm32f1xx_hal_pcd.c **** 
  38:Drivers/STM32F1xx_HAL_Driver/Src/stm32f1xx_hal_pcd.c ****      (#)Associate the Upper USB device stack to the HAL PCD Driver:
  39:Drivers/STM32F1xx_HAL_Driver/Src/stm32f1xx_hal_pcd.c ****          (##) hpcd.pData = pdev;
  40:Drivers/STM32F1xx_HAL_Driver/Src/stm32f1xx_hal_pcd.c **** 
  41:Drivers/STM32F1xx_HAL_Driver/Src/stm32f1xx_hal_pcd.c ****      (#)Enable HCD transmission and reception:
  42:Drivers/STM32F1xx_HAL_Driver/Src/stm32f1xx_hal_pcd.c ****          (##) HAL_PCD_Start();
  43:Drivers/STM32F1xx_HAL_Driver/Src/stm32f1xx_hal_pcd.c **** 
  44:Drivers/STM32F1xx_HAL_Driver/Src/stm32f1xx_hal_pcd.c ****   @endverbatim
  45:Drivers/STM32F1xx_HAL_Driver/Src/stm32f1xx_hal_pcd.c ****   ******************************************************************************
  46:Drivers/STM32F1xx_HAL_Driver/Src/stm32f1xx_hal_pcd.c ****   * @attention
  47:Drivers/STM32F1xx_HAL_Driver/Src/stm32f1xx_hal_pcd.c ****   *
  48:Drivers/STM32F1xx_HAL_Driver/Src/stm32f1xx_hal_pcd.c ****   * <h2><center>&copy; COPYRIGHT(c) 2016 STMicroelectronics</center></h2>
  49:Drivers/STM32F1xx_HAL_Driver/Src/stm32f1xx_hal_pcd.c ****   *
  50:Drivers/STM32F1xx_HAL_Driver/Src/stm32f1xx_hal_pcd.c ****   * Redistribution and use in source and binary forms, with or without modification,
  51:Drivers/STM32F1xx_HAL_Driver/Src/stm32f1xx_hal_pcd.c ****   * are permitted provided that the following conditions are met:
  52:Drivers/STM32F1xx_HAL_Driver/Src/stm32f1xx_hal_pcd.c ****   *   1. Redistributions of source code must retain the above copyright notice,
  53:Drivers/STM32F1xx_HAL_Driver/Src/stm32f1xx_hal_pcd.c ****   *      this list of conditions and the following disclaimer.
  54:Drivers/STM32F1xx_HAL_Driver/Src/stm32f1xx_hal_pcd.c ****   *   2. Redistributions in binary form must reproduce the above copyright notice,
  55:Drivers/STM32F1xx_HAL_Driver/Src/stm32f1xx_hal_pcd.c ****   *      this list of conditions and the following disclaimer in the documentation
  56:Drivers/STM32F1xx_HAL_Driver/Src/stm32f1xx_hal_pcd.c ****   *      and/or other materials provided with the distribution.
  57:Drivers/STM32F1xx_HAL_Driver/Src/stm32f1xx_hal_pcd.c ****   *   3. Neither the name of STMicroelectronics nor the names of its contributors
  58:Drivers/STM32F1xx_HAL_Driver/Src/stm32f1xx_hal_pcd.c ****   *      may be used to endorse or promote products derived from this software
  59:Drivers/STM32F1xx_HAL_Driver/Src/stm32f1xx_hal_pcd.c ****   *      without specific prior written permission.
  60:Drivers/STM32F1xx_HAL_Driver/Src/stm32f1xx_hal_pcd.c ****   *
  61:Drivers/STM32F1xx_HAL_Driver/Src/stm32f1xx_hal_pcd.c ****   * THIS SOFTWARE IS PROVIDED BY THE COPYRIGHT HOLDERS AND CONTRIBUTORS "AS IS"
  62:Drivers/STM32F1xx_HAL_Driver/Src/stm32f1xx_hal_pcd.c ****   * AND ANY EXPRESS OR IMPLIED WARRANTIES, INCLUDING, BUT NOT LIMITED TO, THE
  63:Drivers/STM32F1xx_HAL_Driver/Src/stm32f1xx_hal_pcd.c ****   * IMPLIED WARRANTIES OF MERCHANTABILITY AND FITNESS FOR A PARTICULAR PURPOSE ARE
  64:Drivers/STM32F1xx_HAL_Driver/Src/stm32f1xx_hal_pcd.c ****   * DISCLAIMED. IN NO EVENT SHALL THE COPYRIGHT HOLDER OR CONTRIBUTORS BE LIABLE
  65:Drivers/STM32F1xx_HAL_Driver/Src/stm32f1xx_hal_pcd.c ****   * FOR ANY DIRECT, INDIRECT, INCIDENTAL, SPECIAL, EXEMPLARY, OR CONSEQUENTIAL
  66:Drivers/STM32F1xx_HAL_Driver/Src/stm32f1xx_hal_pcd.c ****   * DAMAGES (INCLUDING, BUT NOT LIMITED TO, PROCUREMENT OF SUBSTITUTE GOODS OR
  67:Drivers/STM32F1xx_HAL_Driver/Src/stm32f1xx_hal_pcd.c ****   * SERVICES; LOSS OF USE, DATA, OR PROFITS; OR BUSINESS INTERRUPTION) HOWEVER
  68:Drivers/STM32F1xx_HAL_Driver/Src/stm32f1xx_hal_pcd.c ****   * CAUSED AND ON ANY THEORY OF LIABILITY, WHETHER IN CONTRACT, STRICT LIABILITY,
  69:Drivers/STM32F1xx_HAL_Driver/Src/stm32f1xx_hal_pcd.c ****   * OR TORT (INCLUDING NEGLIGENCE OR OTHERWISE) ARISING IN ANY WAY OUT OF THE USE
  70:Drivers/STM32F1xx_HAL_Driver/Src/stm32f1xx_hal_pcd.c ****   * OF THIS SOFTWARE, EVEN IF ADVISED OF THE POSSIBILITY OF SUCH DAMAGE.
  71:Drivers/STM32F1xx_HAL_Driver/Src/stm32f1xx_hal_pcd.c ****   *
  72:Drivers/STM32F1xx_HAL_Driver/Src/stm32f1xx_hal_pcd.c ****   ******************************************************************************
  73:Drivers/STM32F1xx_HAL_Driver/Src/stm32f1xx_hal_pcd.c ****   */
  74:Drivers/STM32F1xx_HAL_Driver/Src/stm32f1xx_hal_pcd.c **** 
  75:Drivers/STM32F1xx_HAL_Driver/Src/stm32f1xx_hal_pcd.c **** /* Includes ------------------------------------------------------------------*/
  76:Drivers/STM32F1xx_HAL_Driver/Src/stm32f1xx_hal_pcd.c **** #include "stm32f1xx_hal.h"
  77:Drivers/STM32F1xx_HAL_Driver/Src/stm32f1xx_hal_pcd.c **** 
  78:Drivers/STM32F1xx_HAL_Driver/Src/stm32f1xx_hal_pcd.c **** /** @addtogroup STM32F1xx_HAL_Driver
  79:Drivers/STM32F1xx_HAL_Driver/Src/stm32f1xx_hal_pcd.c ****   * @{
  80:Drivers/STM32F1xx_HAL_Driver/Src/stm32f1xx_hal_pcd.c ****   */
  81:Drivers/STM32F1xx_HAL_Driver/Src/stm32f1xx_hal_pcd.c **** 
  82:Drivers/STM32F1xx_HAL_Driver/Src/stm32f1xx_hal_pcd.c **** 
  83:Drivers/STM32F1xx_HAL_Driver/Src/stm32f1xx_hal_pcd.c **** 
  84:Drivers/STM32F1xx_HAL_Driver/Src/stm32f1xx_hal_pcd.c **** #ifdef HAL_PCD_MODULE_ENABLED
  85:Drivers/STM32F1xx_HAL_Driver/Src/stm32f1xx_hal_pcd.c **** 
  86:Drivers/STM32F1xx_HAL_Driver/Src/stm32f1xx_hal_pcd.c **** #if defined(STM32F102x6) || defined(STM32F102xB) || \
  87:Drivers/STM32F1xx_HAL_Driver/Src/stm32f1xx_hal_pcd.c ****     defined(STM32F103x6) || defined(STM32F103xB) || \
ARM GAS  C:\Users\Eemeli\AppData\Local\Temp\cccfLE7k.s 			page 3


  88:Drivers/STM32F1xx_HAL_Driver/Src/stm32f1xx_hal_pcd.c ****     defined(STM32F103xE) || defined(STM32F103xG) || \
  89:Drivers/STM32F1xx_HAL_Driver/Src/stm32f1xx_hal_pcd.c ****     defined(STM32F105xC) || defined(STM32F107xC)
  90:Drivers/STM32F1xx_HAL_Driver/Src/stm32f1xx_hal_pcd.c **** 
  91:Drivers/STM32F1xx_HAL_Driver/Src/stm32f1xx_hal_pcd.c **** /** @defgroup PCD PCD
  92:Drivers/STM32F1xx_HAL_Driver/Src/stm32f1xx_hal_pcd.c ****   * @brief PCD HAL module driver
  93:Drivers/STM32F1xx_HAL_Driver/Src/stm32f1xx_hal_pcd.c ****   * @{
  94:Drivers/STM32F1xx_HAL_Driver/Src/stm32f1xx_hal_pcd.c ****   */
  95:Drivers/STM32F1xx_HAL_Driver/Src/stm32f1xx_hal_pcd.c **** 
  96:Drivers/STM32F1xx_HAL_Driver/Src/stm32f1xx_hal_pcd.c **** /* Private types -------------------------------------------------------------*/
  97:Drivers/STM32F1xx_HAL_Driver/Src/stm32f1xx_hal_pcd.c **** /* Private variables ---------------------------------------------------------*/
  98:Drivers/STM32F1xx_HAL_Driver/Src/stm32f1xx_hal_pcd.c **** /* Private constants ---------------------------------------------------------*/
  99:Drivers/STM32F1xx_HAL_Driver/Src/stm32f1xx_hal_pcd.c **** /* Private macros ------------------------------------------------------------*/
 100:Drivers/STM32F1xx_HAL_Driver/Src/stm32f1xx_hal_pcd.c **** /** @defgroup PCD_Private_Macros PCD Private Macros
 101:Drivers/STM32F1xx_HAL_Driver/Src/stm32f1xx_hal_pcd.c ****   * @{
 102:Drivers/STM32F1xx_HAL_Driver/Src/stm32f1xx_hal_pcd.c ****   */ 
 103:Drivers/STM32F1xx_HAL_Driver/Src/stm32f1xx_hal_pcd.c **** #define PCD_MIN(a, b)  (((a) < (b)) ? (a) : (b))
 104:Drivers/STM32F1xx_HAL_Driver/Src/stm32f1xx_hal_pcd.c **** #define PCD_MAX(a, b)  (((a) > (b)) ? (a) : (b))
 105:Drivers/STM32F1xx_HAL_Driver/Src/stm32f1xx_hal_pcd.c **** /**
 106:Drivers/STM32F1xx_HAL_Driver/Src/stm32f1xx_hal_pcd.c ****   * @}
 107:Drivers/STM32F1xx_HAL_Driver/Src/stm32f1xx_hal_pcd.c ****   */
 108:Drivers/STM32F1xx_HAL_Driver/Src/stm32f1xx_hal_pcd.c **** 
 109:Drivers/STM32F1xx_HAL_Driver/Src/stm32f1xx_hal_pcd.c **** /* Private functions ---------------------------------------------------------*/
 110:Drivers/STM32F1xx_HAL_Driver/Src/stm32f1xx_hal_pcd.c **** /** @defgroup PCD_Private_Functions PCD Private Functions
 111:Drivers/STM32F1xx_HAL_Driver/Src/stm32f1xx_hal_pcd.c ****   * @{
 112:Drivers/STM32F1xx_HAL_Driver/Src/stm32f1xx_hal_pcd.c ****   */
 113:Drivers/STM32F1xx_HAL_Driver/Src/stm32f1xx_hal_pcd.c **** #if defined (USB_OTG_FS)
 114:Drivers/STM32F1xx_HAL_Driver/Src/stm32f1xx_hal_pcd.c **** static HAL_StatusTypeDef PCD_WriteEmptyTxFifo(PCD_HandleTypeDef *hpcd, uint32_t epnum);
 115:Drivers/STM32F1xx_HAL_Driver/Src/stm32f1xx_hal_pcd.c **** #endif /* USB_OTG_FS */
 116:Drivers/STM32F1xx_HAL_Driver/Src/stm32f1xx_hal_pcd.c **** 
 117:Drivers/STM32F1xx_HAL_Driver/Src/stm32f1xx_hal_pcd.c **** #if defined (USB)
 118:Drivers/STM32F1xx_HAL_Driver/Src/stm32f1xx_hal_pcd.c **** static HAL_StatusTypeDef PCD_EP_ISR_Handler(PCD_HandleTypeDef *hpcd);
 119:Drivers/STM32F1xx_HAL_Driver/Src/stm32f1xx_hal_pcd.c **** #endif /* USB */
 120:Drivers/STM32F1xx_HAL_Driver/Src/stm32f1xx_hal_pcd.c **** /**
 121:Drivers/STM32F1xx_HAL_Driver/Src/stm32f1xx_hal_pcd.c ****   * @}
 122:Drivers/STM32F1xx_HAL_Driver/Src/stm32f1xx_hal_pcd.c ****   */
 123:Drivers/STM32F1xx_HAL_Driver/Src/stm32f1xx_hal_pcd.c **** 
 124:Drivers/STM32F1xx_HAL_Driver/Src/stm32f1xx_hal_pcd.c **** /* Exported functions --------------------------------------------------------*/
 125:Drivers/STM32F1xx_HAL_Driver/Src/stm32f1xx_hal_pcd.c **** /** @defgroup PCD_Exported_Functions PCD Exported Functions
 126:Drivers/STM32F1xx_HAL_Driver/Src/stm32f1xx_hal_pcd.c ****   * @{
 127:Drivers/STM32F1xx_HAL_Driver/Src/stm32f1xx_hal_pcd.c ****   */
 128:Drivers/STM32F1xx_HAL_Driver/Src/stm32f1xx_hal_pcd.c **** 
 129:Drivers/STM32F1xx_HAL_Driver/Src/stm32f1xx_hal_pcd.c **** /** @defgroup PCD_Exported_Functions_Group1 Initialization and de-initialization functions 
 130:Drivers/STM32F1xx_HAL_Driver/Src/stm32f1xx_hal_pcd.c ****  *  @brief    Initialization and Configuration functions 
 131:Drivers/STM32F1xx_HAL_Driver/Src/stm32f1xx_hal_pcd.c ****  *
 132:Drivers/STM32F1xx_HAL_Driver/Src/stm32f1xx_hal_pcd.c **** @verbatim
 133:Drivers/STM32F1xx_HAL_Driver/Src/stm32f1xx_hal_pcd.c ****  ===============================================================================
 134:Drivers/STM32F1xx_HAL_Driver/Src/stm32f1xx_hal_pcd.c ****             ##### Initialization and de-initialization functions #####
 135:Drivers/STM32F1xx_HAL_Driver/Src/stm32f1xx_hal_pcd.c ****  ===============================================================================
 136:Drivers/STM32F1xx_HAL_Driver/Src/stm32f1xx_hal_pcd.c ****     [..]  This section provides functions allowing to:
 137:Drivers/STM32F1xx_HAL_Driver/Src/stm32f1xx_hal_pcd.c ****  
 138:Drivers/STM32F1xx_HAL_Driver/Src/stm32f1xx_hal_pcd.c **** @endverbatim
 139:Drivers/STM32F1xx_HAL_Driver/Src/stm32f1xx_hal_pcd.c ****   * @{
 140:Drivers/STM32F1xx_HAL_Driver/Src/stm32f1xx_hal_pcd.c ****   */
 141:Drivers/STM32F1xx_HAL_Driver/Src/stm32f1xx_hal_pcd.c **** 
 142:Drivers/STM32F1xx_HAL_Driver/Src/stm32f1xx_hal_pcd.c **** /**
 143:Drivers/STM32F1xx_HAL_Driver/Src/stm32f1xx_hal_pcd.c ****   * @brief  Initializes the PCD according to the specified
 144:Drivers/STM32F1xx_HAL_Driver/Src/stm32f1xx_hal_pcd.c ****   *         parameters in the PCD_InitTypeDef and create the associated handle.
ARM GAS  C:\Users\Eemeli\AppData\Local\Temp\cccfLE7k.s 			page 4


 145:Drivers/STM32F1xx_HAL_Driver/Src/stm32f1xx_hal_pcd.c ****   * @param  hpcd: PCD handle
 146:Drivers/STM32F1xx_HAL_Driver/Src/stm32f1xx_hal_pcd.c ****   * @retval HAL status
 147:Drivers/STM32F1xx_HAL_Driver/Src/stm32f1xx_hal_pcd.c ****   */
 148:Drivers/STM32F1xx_HAL_Driver/Src/stm32f1xx_hal_pcd.c **** HAL_StatusTypeDef HAL_PCD_Init(PCD_HandleTypeDef *hpcd)
 149:Drivers/STM32F1xx_HAL_Driver/Src/stm32f1xx_hal_pcd.c **** {
 150:Drivers/STM32F1xx_HAL_Driver/Src/stm32f1xx_hal_pcd.c ****   uint32_t index = 0U;
 151:Drivers/STM32F1xx_HAL_Driver/Src/stm32f1xx_hal_pcd.c ****   
 152:Drivers/STM32F1xx_HAL_Driver/Src/stm32f1xx_hal_pcd.c ****   /* Check the PCD handle allocation */
 153:Drivers/STM32F1xx_HAL_Driver/Src/stm32f1xx_hal_pcd.c ****   if(hpcd == NULL)
 154:Drivers/STM32F1xx_HAL_Driver/Src/stm32f1xx_hal_pcd.c ****   {
 155:Drivers/STM32F1xx_HAL_Driver/Src/stm32f1xx_hal_pcd.c ****     return HAL_ERROR;
 156:Drivers/STM32F1xx_HAL_Driver/Src/stm32f1xx_hal_pcd.c ****   }
 157:Drivers/STM32F1xx_HAL_Driver/Src/stm32f1xx_hal_pcd.c ****   
 158:Drivers/STM32F1xx_HAL_Driver/Src/stm32f1xx_hal_pcd.c ****   /* Check the parameters */
 159:Drivers/STM32F1xx_HAL_Driver/Src/stm32f1xx_hal_pcd.c ****   assert_param(IS_PCD_ALL_INSTANCE(hpcd->Instance));
 160:Drivers/STM32F1xx_HAL_Driver/Src/stm32f1xx_hal_pcd.c **** 
 161:Drivers/STM32F1xx_HAL_Driver/Src/stm32f1xx_hal_pcd.c ****   if(hpcd->State == HAL_PCD_STATE_RESET)
 162:Drivers/STM32F1xx_HAL_Driver/Src/stm32f1xx_hal_pcd.c ****   {  
 163:Drivers/STM32F1xx_HAL_Driver/Src/stm32f1xx_hal_pcd.c ****     /* Allocate lock resource and initialize it */
 164:Drivers/STM32F1xx_HAL_Driver/Src/stm32f1xx_hal_pcd.c ****     hpcd->Lock = HAL_UNLOCKED;
 165:Drivers/STM32F1xx_HAL_Driver/Src/stm32f1xx_hal_pcd.c **** 
 166:Drivers/STM32F1xx_HAL_Driver/Src/stm32f1xx_hal_pcd.c ****     /* Init the low level hardware : GPIO, CLOCK, NVIC... */
 167:Drivers/STM32F1xx_HAL_Driver/Src/stm32f1xx_hal_pcd.c ****     HAL_PCD_MspInit(hpcd);
 168:Drivers/STM32F1xx_HAL_Driver/Src/stm32f1xx_hal_pcd.c ****   }
 169:Drivers/STM32F1xx_HAL_Driver/Src/stm32f1xx_hal_pcd.c ****   
 170:Drivers/STM32F1xx_HAL_Driver/Src/stm32f1xx_hal_pcd.c ****   hpcd->State = HAL_PCD_STATE_BUSY;
 171:Drivers/STM32F1xx_HAL_Driver/Src/stm32f1xx_hal_pcd.c ****   
 172:Drivers/STM32F1xx_HAL_Driver/Src/stm32f1xx_hal_pcd.c ****   /* Disable the Interrupts */
 173:Drivers/STM32F1xx_HAL_Driver/Src/stm32f1xx_hal_pcd.c ****   __HAL_PCD_DISABLE(hpcd);
 174:Drivers/STM32F1xx_HAL_Driver/Src/stm32f1xx_hal_pcd.c **** 
 175:Drivers/STM32F1xx_HAL_Driver/Src/stm32f1xx_hal_pcd.c ****   /*Init the Core (common init.) */
 176:Drivers/STM32F1xx_HAL_Driver/Src/stm32f1xx_hal_pcd.c ****   USB_CoreInit(hpcd->Instance, hpcd->Init);
 177:Drivers/STM32F1xx_HAL_Driver/Src/stm32f1xx_hal_pcd.c ****  
 178:Drivers/STM32F1xx_HAL_Driver/Src/stm32f1xx_hal_pcd.c ****   /* Force Device Mode*/
 179:Drivers/STM32F1xx_HAL_Driver/Src/stm32f1xx_hal_pcd.c ****   USB_SetCurrentMode(hpcd->Instance , USB_DEVICE_MODE);
 180:Drivers/STM32F1xx_HAL_Driver/Src/stm32f1xx_hal_pcd.c ****  
 181:Drivers/STM32F1xx_HAL_Driver/Src/stm32f1xx_hal_pcd.c ****   /* Init endpoints structures */
 182:Drivers/STM32F1xx_HAL_Driver/Src/stm32f1xx_hal_pcd.c ****   for (index = 0U; index < 15U ; index++)
 183:Drivers/STM32F1xx_HAL_Driver/Src/stm32f1xx_hal_pcd.c ****   {
 184:Drivers/STM32F1xx_HAL_Driver/Src/stm32f1xx_hal_pcd.c ****     /* Init ep structure */
 185:Drivers/STM32F1xx_HAL_Driver/Src/stm32f1xx_hal_pcd.c ****     hpcd->IN_ep[index].is_in = 1U;
 186:Drivers/STM32F1xx_HAL_Driver/Src/stm32f1xx_hal_pcd.c ****     hpcd->IN_ep[index].num = index;
 187:Drivers/STM32F1xx_HAL_Driver/Src/stm32f1xx_hal_pcd.c ****     hpcd->IN_ep[index].tx_fifo_num = index;
 188:Drivers/STM32F1xx_HAL_Driver/Src/stm32f1xx_hal_pcd.c ****     /* Control until ep is actvated */
 189:Drivers/STM32F1xx_HAL_Driver/Src/stm32f1xx_hal_pcd.c ****     hpcd->IN_ep[index].type = EP_TYPE_CTRL;
 190:Drivers/STM32F1xx_HAL_Driver/Src/stm32f1xx_hal_pcd.c ****     hpcd->IN_ep[index].maxpacket =  0U;
 191:Drivers/STM32F1xx_HAL_Driver/Src/stm32f1xx_hal_pcd.c ****     hpcd->IN_ep[index].xfer_buff = 0U;
 192:Drivers/STM32F1xx_HAL_Driver/Src/stm32f1xx_hal_pcd.c ****     hpcd->IN_ep[index].xfer_len = 0U;
 193:Drivers/STM32F1xx_HAL_Driver/Src/stm32f1xx_hal_pcd.c ****   }
 194:Drivers/STM32F1xx_HAL_Driver/Src/stm32f1xx_hal_pcd.c ****  
 195:Drivers/STM32F1xx_HAL_Driver/Src/stm32f1xx_hal_pcd.c ****   for (index = 0U; index < 15U ; index++)
 196:Drivers/STM32F1xx_HAL_Driver/Src/stm32f1xx_hal_pcd.c ****   {
 197:Drivers/STM32F1xx_HAL_Driver/Src/stm32f1xx_hal_pcd.c ****     hpcd->OUT_ep[index].is_in = 0U;
 198:Drivers/STM32F1xx_HAL_Driver/Src/stm32f1xx_hal_pcd.c ****     hpcd->OUT_ep[index].num = index;
 199:Drivers/STM32F1xx_HAL_Driver/Src/stm32f1xx_hal_pcd.c ****     hpcd->IN_ep[index].tx_fifo_num = index;
 200:Drivers/STM32F1xx_HAL_Driver/Src/stm32f1xx_hal_pcd.c ****     /* Control until ep is activated */
 201:Drivers/STM32F1xx_HAL_Driver/Src/stm32f1xx_hal_pcd.c ****     hpcd->OUT_ep[index].type = EP_TYPE_CTRL;
ARM GAS  C:\Users\Eemeli\AppData\Local\Temp\cccfLE7k.s 			page 5


 202:Drivers/STM32F1xx_HAL_Driver/Src/stm32f1xx_hal_pcd.c ****     hpcd->OUT_ep[index].maxpacket = 0U;
 203:Drivers/STM32F1xx_HAL_Driver/Src/stm32f1xx_hal_pcd.c ****     hpcd->OUT_ep[index].xfer_buff = 0U;
 204:Drivers/STM32F1xx_HAL_Driver/Src/stm32f1xx_hal_pcd.c ****     hpcd->OUT_ep[index].xfer_len = 0U;
 205:Drivers/STM32F1xx_HAL_Driver/Src/stm32f1xx_hal_pcd.c ****   }
 206:Drivers/STM32F1xx_HAL_Driver/Src/stm32f1xx_hal_pcd.c ****   
 207:Drivers/STM32F1xx_HAL_Driver/Src/stm32f1xx_hal_pcd.c ****   /* Init Device */
 208:Drivers/STM32F1xx_HAL_Driver/Src/stm32f1xx_hal_pcd.c ****   USB_DevInit(hpcd->Instance, hpcd->Init);
 209:Drivers/STM32F1xx_HAL_Driver/Src/stm32f1xx_hal_pcd.c ****   
 210:Drivers/STM32F1xx_HAL_Driver/Src/stm32f1xx_hal_pcd.c ****   hpcd->USB_Address = 0U;
 211:Drivers/STM32F1xx_HAL_Driver/Src/stm32f1xx_hal_pcd.c ****   hpcd->State= HAL_PCD_STATE_READY;
 212:Drivers/STM32F1xx_HAL_Driver/Src/stm32f1xx_hal_pcd.c ****   
 213:Drivers/STM32F1xx_HAL_Driver/Src/stm32f1xx_hal_pcd.c ****   USB_DevDisconnect (hpcd->Instance);  
 214:Drivers/STM32F1xx_HAL_Driver/Src/stm32f1xx_hal_pcd.c ****   return HAL_OK;
 215:Drivers/STM32F1xx_HAL_Driver/Src/stm32f1xx_hal_pcd.c **** }
 216:Drivers/STM32F1xx_HAL_Driver/Src/stm32f1xx_hal_pcd.c **** 
 217:Drivers/STM32F1xx_HAL_Driver/Src/stm32f1xx_hal_pcd.c **** /**
 218:Drivers/STM32F1xx_HAL_Driver/Src/stm32f1xx_hal_pcd.c ****   * @brief  DeInitializes the PCD peripheral 
 219:Drivers/STM32F1xx_HAL_Driver/Src/stm32f1xx_hal_pcd.c ****   * @param  hpcd: PCD handle
 220:Drivers/STM32F1xx_HAL_Driver/Src/stm32f1xx_hal_pcd.c ****   * @retval HAL status
 221:Drivers/STM32F1xx_HAL_Driver/Src/stm32f1xx_hal_pcd.c ****   */
 222:Drivers/STM32F1xx_HAL_Driver/Src/stm32f1xx_hal_pcd.c **** HAL_StatusTypeDef HAL_PCD_DeInit(PCD_HandleTypeDef *hpcd)
 223:Drivers/STM32F1xx_HAL_Driver/Src/stm32f1xx_hal_pcd.c **** {
 224:Drivers/STM32F1xx_HAL_Driver/Src/stm32f1xx_hal_pcd.c ****   /* Check the PCD handle allocation */
 225:Drivers/STM32F1xx_HAL_Driver/Src/stm32f1xx_hal_pcd.c ****   if(hpcd == NULL)
 226:Drivers/STM32F1xx_HAL_Driver/Src/stm32f1xx_hal_pcd.c ****   {
 227:Drivers/STM32F1xx_HAL_Driver/Src/stm32f1xx_hal_pcd.c ****     return HAL_ERROR;
 228:Drivers/STM32F1xx_HAL_Driver/Src/stm32f1xx_hal_pcd.c ****   }
 229:Drivers/STM32F1xx_HAL_Driver/Src/stm32f1xx_hal_pcd.c **** 
 230:Drivers/STM32F1xx_HAL_Driver/Src/stm32f1xx_hal_pcd.c ****   hpcd->State = HAL_PCD_STATE_BUSY;
 231:Drivers/STM32F1xx_HAL_Driver/Src/stm32f1xx_hal_pcd.c ****   
 232:Drivers/STM32F1xx_HAL_Driver/Src/stm32f1xx_hal_pcd.c ****   /* Stop Device */
 233:Drivers/STM32F1xx_HAL_Driver/Src/stm32f1xx_hal_pcd.c ****   HAL_PCD_Stop(hpcd);
 234:Drivers/STM32F1xx_HAL_Driver/Src/stm32f1xx_hal_pcd.c ****   
 235:Drivers/STM32F1xx_HAL_Driver/Src/stm32f1xx_hal_pcd.c ****   /* DeInit the low level hardware */
 236:Drivers/STM32F1xx_HAL_Driver/Src/stm32f1xx_hal_pcd.c ****   HAL_PCD_MspDeInit(hpcd);
 237:Drivers/STM32F1xx_HAL_Driver/Src/stm32f1xx_hal_pcd.c ****   
 238:Drivers/STM32F1xx_HAL_Driver/Src/stm32f1xx_hal_pcd.c ****   hpcd->State = HAL_PCD_STATE_RESET; 
 239:Drivers/STM32F1xx_HAL_Driver/Src/stm32f1xx_hal_pcd.c ****   
 240:Drivers/STM32F1xx_HAL_Driver/Src/stm32f1xx_hal_pcd.c ****   return HAL_OK;
 241:Drivers/STM32F1xx_HAL_Driver/Src/stm32f1xx_hal_pcd.c **** }
 242:Drivers/STM32F1xx_HAL_Driver/Src/stm32f1xx_hal_pcd.c **** 
 243:Drivers/STM32F1xx_HAL_Driver/Src/stm32f1xx_hal_pcd.c **** /**
 244:Drivers/STM32F1xx_HAL_Driver/Src/stm32f1xx_hal_pcd.c ****   * @brief  Initializes the PCD MSP.
 245:Drivers/STM32F1xx_HAL_Driver/Src/stm32f1xx_hal_pcd.c ****   * @param  hpcd: PCD handle
 246:Drivers/STM32F1xx_HAL_Driver/Src/stm32f1xx_hal_pcd.c ****   * @retval None
 247:Drivers/STM32F1xx_HAL_Driver/Src/stm32f1xx_hal_pcd.c ****   */
 248:Drivers/STM32F1xx_HAL_Driver/Src/stm32f1xx_hal_pcd.c **** __weak void HAL_PCD_MspInit(PCD_HandleTypeDef *hpcd)
 249:Drivers/STM32F1xx_HAL_Driver/Src/stm32f1xx_hal_pcd.c **** {
  29              		.loc 1 249 1 view -0
  30              		.cfi_startproc
  31              		@ args = 0, pretend = 0, frame = 0
  32              		@ frame_needed = 0, uses_anonymous_args = 0
  33              		@ link register save eliminated.
 250:Drivers/STM32F1xx_HAL_Driver/Src/stm32f1xx_hal_pcd.c ****   /* Prevent unused argument(s) compilation warning */
 251:Drivers/STM32F1xx_HAL_Driver/Src/stm32f1xx_hal_pcd.c ****   UNUSED(hpcd);
  34              		.loc 1 251 3 view .LVU1
 252:Drivers/STM32F1xx_HAL_Driver/Src/stm32f1xx_hal_pcd.c ****   /* NOTE : This function should not be modified, when the callback is needed,
ARM GAS  C:\Users\Eemeli\AppData\Local\Temp\cccfLE7k.s 			page 6


 253:Drivers/STM32F1xx_HAL_Driver/Src/stm32f1xx_hal_pcd.c ****             the HAL_PCD_MspInit could be implemented in the user file
 254:Drivers/STM32F1xx_HAL_Driver/Src/stm32f1xx_hal_pcd.c ****    */
 255:Drivers/STM32F1xx_HAL_Driver/Src/stm32f1xx_hal_pcd.c **** }
  35              		.loc 1 255 1 is_stmt 0 view .LVU2
  36 0000 7047     		bx	lr
  37              		.cfi_endproc
  38              	.LFE68:
  40 0002 00BF     		.section	.text.HAL_PCD_Init,"ax",%progbits
  41              		.align	1
  42              		.p2align 2,,3
  43              		.global	HAL_PCD_Init
  44              		.syntax unified
  45              		.thumb
  46              		.thumb_func
  47              		.fpu softvfp
  49              	HAL_PCD_Init:
  50              	.LVL1:
  51              	.LFB66:
 149:Drivers/STM32F1xx_HAL_Driver/Src/stm32f1xx_hal_pcd.c ****   uint32_t index = 0U;
  52              		.loc 1 149 1 is_stmt 1 view -0
  53              		.cfi_startproc
  54              		@ args = 0, pretend = 0, frame = 0
  55              		@ frame_needed = 0, uses_anonymous_args = 0
 150:Drivers/STM32F1xx_HAL_Driver/Src/stm32f1xx_hal_pcd.c ****   
  56              		.loc 1 150 3 view .LVU4
 153:Drivers/STM32F1xx_HAL_Driver/Src/stm32f1xx_hal_pcd.c ****   {
  57              		.loc 1 153 3 view .LVU5
 153:Drivers/STM32F1xx_HAL_Driver/Src/stm32f1xx_hal_pcd.c ****   {
  58              		.loc 1 153 5 is_stmt 0 view .LVU6
  59 0000 0028     		cmp	r0, #0
  60 0002 63D0     		beq	.L8
 159:Drivers/STM32F1xx_HAL_Driver/Src/stm32f1xx_hal_pcd.c **** 
  61              		.loc 1 159 3 is_stmt 1 view .LVU7
 161:Drivers/STM32F1xx_HAL_Driver/Src/stm32f1xx_hal_pcd.c ****   {  
  62              		.loc 1 161 3 view .LVU8
 149:Drivers/STM32F1xx_HAL_Driver/Src/stm32f1xx_hal_pcd.c ****   uint32_t index = 0U;
  63              		.loc 1 149 1 is_stmt 0 view .LVU9
  64 0004 F0B5     		push	{r4, r5, r6, r7, lr}
  65              	.LCFI0:
  66              		.cfi_def_cfa_offset 20
  67              		.cfi_offset 4, -20
  68              		.cfi_offset 5, -16
  69              		.cfi_offset 6, -12
  70              		.cfi_offset 7, -8
  71              		.cfi_offset 14, -4
 161:Drivers/STM32F1xx_HAL_Driver/Src/stm32f1xx_hal_pcd.c ****   {  
  72              		.loc 1 161 10 view .LVU10
  73 0006 90F82934 		ldrb	r3, [r0, #1065]	@ zero_extendqisi2
 149:Drivers/STM32F1xx_HAL_Driver/Src/stm32f1xx_hal_pcd.c ****   uint32_t index = 0U;
  74              		.loc 1 149 1 view .LVU11
  75 000a 87B0     		sub	sp, sp, #28
  76              	.LCFI1:
  77              		.cfi_def_cfa_offset 48
  78 000c 0546     		mov	r5, r0
 161:Drivers/STM32F1xx_HAL_Driver/Src/stm32f1xx_hal_pcd.c ****   {  
  79              		.loc 1 161 5 view .LVU12
  80 000e 03F0FF02 		and	r2, r3, #255
ARM GAS  C:\Users\Eemeli\AppData\Local\Temp\cccfLE7k.s 			page 7


  81 0012 002B     		cmp	r3, #0
  82 0014 55D0     		beq	.L15
  83              	.LVL2:
  84              	.L5:
 170:Drivers/STM32F1xx_HAL_Driver/Src/stm32f1xx_hal_pcd.c ****   
  85              		.loc 1 170 3 is_stmt 1 view .LVU13
 170:Drivers/STM32F1xx_HAL_Driver/Src/stm32f1xx_hal_pcd.c ****   
  86              		.loc 1 170 15 is_stmt 0 view .LVU14
  87 0016 0323     		movs	r3, #3
 176:Drivers/STM32F1xx_HAL_Driver/Src/stm32f1xx_hal_pcd.c ****  
  88              		.loc 1 176 3 view .LVU15
  89 0018 2E46     		mov	r6, r5
 170:Drivers/STM32F1xx_HAL_Driver/Src/stm32f1xx_hal_pcd.c ****   
  90              		.loc 1 170 15 view .LVU16
  91 001a 85F82934 		strb	r3, [r5, #1065]
 173:Drivers/STM32F1xx_HAL_Driver/Src/stm32f1xx_hal_pcd.c **** 
  92              		.loc 1 173 3 is_stmt 1 view .LVU17
  93 001e 2868     		ldr	r0, [r5]
  94 0020 FFF7FEFF 		bl	USB_DisableGlobalInt
  95              	.LVL3:
 176:Drivers/STM32F1xx_HAL_Driver/Src/stm32f1xx_hal_pcd.c ****  
  96              		.loc 1 176 3 view .LVU18
  97 0024 56F810CB 		ldr	ip, [r6], #16
  98 0028 6C46     		mov	r4, sp
  99 002a 3746     		mov	r7, r6
 100 002c 0FCF     		ldmia	r7!, {r0, r1, r2, r3}
 101 002e 0FC4     		stmia	r4!, {r0, r1, r2, r3}
 102 0030 3B68     		ldr	r3, [r7]
 103 0032 2F1D     		adds	r7, r5, #4
 104 0034 2360     		str	r3, [r4]
 105 0036 97E80E00 		ldm	r7, {r1, r2, r3}
 106 003a 6046     		mov	r0, ip
 107 003c FFF7FEFF 		bl	USB_CoreInit
 108              	.LVL4:
 179:Drivers/STM32F1xx_HAL_Driver/Src/stm32f1xx_hal_pcd.c ****  
 109              		.loc 1 179 3 view .LVU19
 110 0040 0021     		movs	r1, #0
 111 0042 2868     		ldr	r0, [r5]
 112 0044 FFF7FEFF 		bl	USB_SetCurrentMode
 113              	.LVL5:
 182:Drivers/STM32F1xx_HAL_Driver/Src/stm32f1xx_hal_pcd.c ****   {
 114              		.loc 1 182 3 view .LVU20
 182:Drivers/STM32F1xx_HAL_Driver/Src/stm32f1xx_hal_pcd.c ****   {
 115              		.loc 1 182 14 is_stmt 0 view .LVU21
 116 0048 0021     		movs	r1, #0
 117 004a 2B46     		mov	r3, r5
 189:Drivers/STM32F1xx_HAL_Driver/Src/stm32f1xx_hal_pcd.c ****     hpcd->IN_ep[index].maxpacket =  0U;
 118              		.loc 1 189 29 view .LVU22
 119 004c 0846     		mov	r0, r1
 179:Drivers/STM32F1xx_HAL_Driver/Src/stm32f1xx_hal_pcd.c ****  
 120              		.loc 1 179 3 view .LVU23
 121 004e 2A46     		mov	r2, r5
 185:Drivers/STM32F1xx_HAL_Driver/Src/stm32f1xx_hal_pcd.c ****     hpcd->IN_ep[index].num = index;
 122              		.loc 1 185 30 view .LVU24
 123 0050 0124     		movs	r4, #1
 124              	.LVL6:
 125              	.L6:
ARM GAS  C:\Users\Eemeli\AppData\Local\Temp\cccfLE7k.s 			page 8


 185:Drivers/STM32F1xx_HAL_Driver/Src/stm32f1xx_hal_pcd.c ****     hpcd->IN_ep[index].num = index;
 126              		.loc 1 185 5 is_stmt 1 discriminator 3 view .LVU25
 186:Drivers/STM32F1xx_HAL_Driver/Src/stm32f1xx_hal_pcd.c ****     hpcd->IN_ep[index].tx_fifo_num = index;
 127              		.loc 1 186 28 is_stmt 0 discriminator 3 view .LVU26
 128 0052 82F82810 		strb	r1, [r2, #40]
 187:Drivers/STM32F1xx_HAL_Driver/Src/stm32f1xx_hal_pcd.c ****     /* Control until ep is actvated */
 129              		.loc 1 187 36 discriminator 3 view .LVU27
 130 0056 9186     		strh	r1, [r2, #52]	@ movhi
 182:Drivers/STM32F1xx_HAL_Driver/Src/stm32f1xx_hal_pcd.c ****   {
 131              		.loc 1 182 39 discriminator 3 view .LVU28
 132 0058 0131     		adds	r1, r1, #1
 133              	.LVL7:
 182:Drivers/STM32F1xx_HAL_Driver/Src/stm32f1xx_hal_pcd.c ****   {
 134              		.loc 1 182 3 discriminator 3 view .LVU29
 135 005a 0F29     		cmp	r1, #15
 185:Drivers/STM32F1xx_HAL_Driver/Src/stm32f1xx_hal_pcd.c ****     hpcd->IN_ep[index].num = index;
 136              		.loc 1 185 30 discriminator 3 view .LVU30
 137 005c 82F82940 		strb	r4, [r2, #41]
 186:Drivers/STM32F1xx_HAL_Driver/Src/stm32f1xx_hal_pcd.c ****     hpcd->IN_ep[index].tx_fifo_num = index;
 138              		.loc 1 186 5 is_stmt 1 discriminator 3 view .LVU31
 187:Drivers/STM32F1xx_HAL_Driver/Src/stm32f1xx_hal_pcd.c ****     /* Control until ep is actvated */
 139              		.loc 1 187 5 discriminator 3 view .LVU32
 189:Drivers/STM32F1xx_HAL_Driver/Src/stm32f1xx_hal_pcd.c ****     hpcd->IN_ep[index].maxpacket =  0U;
 140              		.loc 1 189 5 discriminator 3 view .LVU33
 189:Drivers/STM32F1xx_HAL_Driver/Src/stm32f1xx_hal_pcd.c ****     hpcd->IN_ep[index].maxpacket =  0U;
 141              		.loc 1 189 29 is_stmt 0 discriminator 3 view .LVU34
 142 0060 82F82B00 		strb	r0, [r2, #43]
 190:Drivers/STM32F1xx_HAL_Driver/Src/stm32f1xx_hal_pcd.c ****     hpcd->IN_ep[index].xfer_buff = 0U;
 143              		.loc 1 190 5 is_stmt 1 discriminator 3 view .LVU35
 191:Drivers/STM32F1xx_HAL_Driver/Src/stm32f1xx_hal_pcd.c ****     hpcd->IN_ep[index].xfer_len = 0U;
 144              		.loc 1 191 34 is_stmt 0 discriminator 3 view .LVU36
 145 0064 C2E90E00 		strd	r0, r0, [r2, #56]
 192:Drivers/STM32F1xx_HAL_Driver/Src/stm32f1xx_hal_pcd.c ****   }
 146              		.loc 1 192 5 is_stmt 1 discriminator 3 view .LVU37
 147              	.LVL8:
 192:Drivers/STM32F1xx_HAL_Driver/Src/stm32f1xx_hal_pcd.c ****   }
 148              		.loc 1 192 33 is_stmt 0 discriminator 3 view .LVU38
 149 0068 1064     		str	r0, [r2, #64]
 150 006a 02F12002 		add	r2, r2, #32
 182:Drivers/STM32F1xx_HAL_Driver/Src/stm32f1xx_hal_pcd.c ****   {
 151              		.loc 1 182 3 discriminator 3 view .LVU39
 152 006e F0D1     		bne	.L6
 195:Drivers/STM32F1xx_HAL_Driver/Src/stm32f1xx_hal_pcd.c ****   {
 153              		.loc 1 195 14 view .LVU40
 154 0070 0022     		movs	r2, #0
 197:Drivers/STM32F1xx_HAL_Driver/Src/stm32f1xx_hal_pcd.c ****     hpcd->OUT_ep[index].num = index;
 155              		.loc 1 197 31 view .LVU41
 156 0072 1446     		mov	r4, r2
 157              	.LVL9:
 158              	.L7:
 197:Drivers/STM32F1xx_HAL_Driver/Src/stm32f1xx_hal_pcd.c ****     hpcd->OUT_ep[index].num = index;
 159              		.loc 1 197 5 is_stmt 1 discriminator 3 view .LVU42
 198:Drivers/STM32F1xx_HAL_Driver/Src/stm32f1xx_hal_pcd.c ****     hpcd->IN_ep[index].tx_fifo_num = index;
 160              		.loc 1 198 29 is_stmt 0 discriminator 3 view .LVU43
 161 0074 83F82822 		strb	r2, [r3, #552]
 199:Drivers/STM32F1xx_HAL_Driver/Src/stm32f1xx_hal_pcd.c ****     /* Control until ep is activated */
 162              		.loc 1 199 36 discriminator 3 view .LVU44
ARM GAS  C:\Users\Eemeli\AppData\Local\Temp\cccfLE7k.s 			page 9


 163 0078 9A86     		strh	r2, [r3, #52]	@ movhi
 195:Drivers/STM32F1xx_HAL_Driver/Src/stm32f1xx_hal_pcd.c ****   {
 164              		.loc 1 195 39 discriminator 3 view .LVU45
 165 007a 0132     		adds	r2, r2, #1
 166              	.LVL10:
 195:Drivers/STM32F1xx_HAL_Driver/Src/stm32f1xx_hal_pcd.c ****   {
 167              		.loc 1 195 3 discriminator 3 view .LVU46
 168 007c 0F2A     		cmp	r2, #15
 197:Drivers/STM32F1xx_HAL_Driver/Src/stm32f1xx_hal_pcd.c ****     hpcd->OUT_ep[index].num = index;
 169              		.loc 1 197 31 discriminator 3 view .LVU47
 170 007e 83F82942 		strb	r4, [r3, #553]
 198:Drivers/STM32F1xx_HAL_Driver/Src/stm32f1xx_hal_pcd.c ****     hpcd->IN_ep[index].tx_fifo_num = index;
 171              		.loc 1 198 5 is_stmt 1 discriminator 3 view .LVU48
 199:Drivers/STM32F1xx_HAL_Driver/Src/stm32f1xx_hal_pcd.c ****     /* Control until ep is activated */
 172              		.loc 1 199 5 discriminator 3 view .LVU49
 201:Drivers/STM32F1xx_HAL_Driver/Src/stm32f1xx_hal_pcd.c ****     hpcd->OUT_ep[index].maxpacket = 0U;
 173              		.loc 1 201 5 discriminator 3 view .LVU50
 201:Drivers/STM32F1xx_HAL_Driver/Src/stm32f1xx_hal_pcd.c ****     hpcd->OUT_ep[index].maxpacket = 0U;
 174              		.loc 1 201 30 is_stmt 0 discriminator 3 view .LVU51
 175 0082 83F82B42 		strb	r4, [r3, #555]
 202:Drivers/STM32F1xx_HAL_Driver/Src/stm32f1xx_hal_pcd.c ****     hpcd->OUT_ep[index].xfer_buff = 0U;
 176              		.loc 1 202 5 is_stmt 1 discriminator 3 view .LVU52
 203:Drivers/STM32F1xx_HAL_Driver/Src/stm32f1xx_hal_pcd.c ****     hpcd->OUT_ep[index].xfer_len = 0U;
 177              		.loc 1 203 35 is_stmt 0 discriminator 3 view .LVU53
 178 0086 C3E98E44 		strd	r4, r4, [r3, #568]
 204:Drivers/STM32F1xx_HAL_Driver/Src/stm32f1xx_hal_pcd.c ****   }
 179              		.loc 1 204 5 is_stmt 1 discriminator 3 view .LVU54
 180              	.LVL11:
 204:Drivers/STM32F1xx_HAL_Driver/Src/stm32f1xx_hal_pcd.c ****   }
 181              		.loc 1 204 34 is_stmt 0 discriminator 3 view .LVU55
 182 008a C3F84042 		str	r4, [r3, #576]
 183 008e 03F12003 		add	r3, r3, #32
 195:Drivers/STM32F1xx_HAL_Driver/Src/stm32f1xx_hal_pcd.c ****   {
 184              		.loc 1 195 3 discriminator 3 view .LVU56
 185 0092 EFD1     		bne	.L7
 208:Drivers/STM32F1xx_HAL_Driver/Src/stm32f1xx_hal_pcd.c ****   
 186              		.loc 1 208 3 is_stmt 1 view .LVU57
 187 0094 EC46     		mov	ip, sp
 188 0096 0FCE     		ldmia	r6!, {r0, r1, r2, r3}
 189              	.LVL12:
 208:Drivers/STM32F1xx_HAL_Driver/Src/stm32f1xx_hal_pcd.c ****   
 190              		.loc 1 208 3 is_stmt 0 view .LVU58
 191 0098 ACE80F00 		stmia	ip!, {r0, r1, r2, r3}
 192 009c 3368     		ldr	r3, [r6]
 193 009e CCF80030 		str	r3, [ip]
 194 00a2 97E80E00 		ldm	r7, {r1, r2, r3}
 195 00a6 2868     		ldr	r0, [r5]
 196 00a8 FFF7FEFF 		bl	USB_DevInit
 197              	.LVL13:
 210:Drivers/STM32F1xx_HAL_Driver/Src/stm32f1xx_hal_pcd.c ****   hpcd->State= HAL_PCD_STATE_READY;
 198              		.loc 1 210 3 is_stmt 1 view .LVU59
 211:Drivers/STM32F1xx_HAL_Driver/Src/stm32f1xx_hal_pcd.c ****   
 199              		.loc 1 211 14 is_stmt 0 view .LVU60
 200 00ac 0123     		movs	r3, #1
 210:Drivers/STM32F1xx_HAL_Driver/Src/stm32f1xx_hal_pcd.c ****   hpcd->State= HAL_PCD_STATE_READY;
 201              		.loc 1 210 21 view .LVU61
 202 00ae 85F82440 		strb	r4, [r5, #36]
ARM GAS  C:\Users\Eemeli\AppData\Local\Temp\cccfLE7k.s 			page 10


 211:Drivers/STM32F1xx_HAL_Driver/Src/stm32f1xx_hal_pcd.c ****   
 203              		.loc 1 211 3 is_stmt 1 view .LVU62
 213:Drivers/STM32F1xx_HAL_Driver/Src/stm32f1xx_hal_pcd.c ****   return HAL_OK;
 204              		.loc 1 213 3 is_stmt 0 view .LVU63
 205 00b2 2868     		ldr	r0, [r5]
 211:Drivers/STM32F1xx_HAL_Driver/Src/stm32f1xx_hal_pcd.c ****   
 206              		.loc 1 211 14 view .LVU64
 207 00b4 85F82934 		strb	r3, [r5, #1065]
 213:Drivers/STM32F1xx_HAL_Driver/Src/stm32f1xx_hal_pcd.c ****   return HAL_OK;
 208              		.loc 1 213 3 is_stmt 1 view .LVU65
 209 00b8 FFF7FEFF 		bl	USB_DevDisconnect
 210              	.LVL14:
 214:Drivers/STM32F1xx_HAL_Driver/Src/stm32f1xx_hal_pcd.c **** }
 211              		.loc 1 214 3 view .LVU66
 214:Drivers/STM32F1xx_HAL_Driver/Src/stm32f1xx_hal_pcd.c **** }
 212              		.loc 1 214 10 is_stmt 0 view .LVU67
 213 00bc 0020     		movs	r0, #0
 215:Drivers/STM32F1xx_HAL_Driver/Src/stm32f1xx_hal_pcd.c **** 
 214              		.loc 1 215 1 view .LVU68
 215 00be 07B0     		add	sp, sp, #28
 216              	.LCFI2:
 217              		.cfi_remember_state
 218              		.cfi_def_cfa_offset 20
 219              		@ sp needed
 220 00c0 F0BD     		pop	{r4, r5, r6, r7, pc}
 221              	.LVL15:
 222              	.L15:
 223              	.LCFI3:
 224              		.cfi_restore_state
 164:Drivers/STM32F1xx_HAL_Driver/Src/stm32f1xx_hal_pcd.c **** 
 225              		.loc 1 164 5 is_stmt 1 view .LVU69
 164:Drivers/STM32F1xx_HAL_Driver/Src/stm32f1xx_hal_pcd.c **** 
 226              		.loc 1 164 16 is_stmt 0 view .LVU70
 227 00c2 80F82824 		strb	r2, [r0, #1064]
 167:Drivers/STM32F1xx_HAL_Driver/Src/stm32f1xx_hal_pcd.c ****   }
 228              		.loc 1 167 5 is_stmt 1 view .LVU71
 229 00c6 FFF7FEFF 		bl	HAL_PCD_MspInit
 230              	.LVL16:
 167:Drivers/STM32F1xx_HAL_Driver/Src/stm32f1xx_hal_pcd.c ****   }
 231              		.loc 1 167 5 is_stmt 0 view .LVU72
 232 00ca A4E7     		b	.L5
 233              	.LVL17:
 234              	.L8:
 235              	.LCFI4:
 236              		.cfi_def_cfa_offset 0
 237              		.cfi_restore 4
 238              		.cfi_restore 5
 239              		.cfi_restore 6
 240              		.cfi_restore 7
 241              		.cfi_restore 14
 155:Drivers/STM32F1xx_HAL_Driver/Src/stm32f1xx_hal_pcd.c ****   }
 242              		.loc 1 155 12 view .LVU73
 243 00cc 0120     		movs	r0, #1
 244              	.LVL18:
 215:Drivers/STM32F1xx_HAL_Driver/Src/stm32f1xx_hal_pcd.c **** 
 245              		.loc 1 215 1 view .LVU74
 246 00ce 7047     		bx	lr
ARM GAS  C:\Users\Eemeli\AppData\Local\Temp\cccfLE7k.s 			page 11


 247              		.cfi_endproc
 248              	.LFE66:
 250              		.section	.text.HAL_PCD_MspDeInit,"ax",%progbits
 251              		.align	1
 252              		.p2align 2,,3
 253              		.weak	HAL_PCD_MspDeInit
 254              		.syntax unified
 255              		.thumb
 256              		.thumb_func
 257              		.fpu softvfp
 259              	HAL_PCD_MspDeInit:
 260              	.LFB100:
 261              		.cfi_startproc
 262              		@ args = 0, pretend = 0, frame = 0
 263              		@ frame_needed = 0, uses_anonymous_args = 0
 264              		@ link register save eliminated.
 265 0000 7047     		bx	lr
 266              		.cfi_endproc
 267              	.LFE100:
 269 0002 00BF     		.section	.text.HAL_PCD_Start,"ax",%progbits
 270              		.align	1
 271              		.p2align 2,,3
 272              		.global	HAL_PCD_Start
 273              		.syntax unified
 274              		.thumb
 275              		.thumb_func
 276              		.fpu softvfp
 278              	HAL_PCD_Start:
 279              	.LVL19:
 280              	.LFB70:
 256:Drivers/STM32F1xx_HAL_Driver/Src/stm32f1xx_hal_pcd.c **** 
 257:Drivers/STM32F1xx_HAL_Driver/Src/stm32f1xx_hal_pcd.c **** /**
 258:Drivers/STM32F1xx_HAL_Driver/Src/stm32f1xx_hal_pcd.c ****   * @brief  DeInitializes PCD MSP.
 259:Drivers/STM32F1xx_HAL_Driver/Src/stm32f1xx_hal_pcd.c ****   * @param  hpcd: PCD handle
 260:Drivers/STM32F1xx_HAL_Driver/Src/stm32f1xx_hal_pcd.c ****   * @retval None
 261:Drivers/STM32F1xx_HAL_Driver/Src/stm32f1xx_hal_pcd.c ****   */
 262:Drivers/STM32F1xx_HAL_Driver/Src/stm32f1xx_hal_pcd.c **** __weak void HAL_PCD_MspDeInit(PCD_HandleTypeDef *hpcd)
 263:Drivers/STM32F1xx_HAL_Driver/Src/stm32f1xx_hal_pcd.c **** {
 264:Drivers/STM32F1xx_HAL_Driver/Src/stm32f1xx_hal_pcd.c ****   /* Prevent unused argument(s) compilation warning */
 265:Drivers/STM32F1xx_HAL_Driver/Src/stm32f1xx_hal_pcd.c ****   UNUSED(hpcd);
 266:Drivers/STM32F1xx_HAL_Driver/Src/stm32f1xx_hal_pcd.c ****   /* NOTE : This function should not be modified, when the callback is needed,
 267:Drivers/STM32F1xx_HAL_Driver/Src/stm32f1xx_hal_pcd.c ****             the HAL_PCD_MspDeInit could be implemented in the user file
 268:Drivers/STM32F1xx_HAL_Driver/Src/stm32f1xx_hal_pcd.c ****    */
 269:Drivers/STM32F1xx_HAL_Driver/Src/stm32f1xx_hal_pcd.c **** }
 270:Drivers/STM32F1xx_HAL_Driver/Src/stm32f1xx_hal_pcd.c **** 
 271:Drivers/STM32F1xx_HAL_Driver/Src/stm32f1xx_hal_pcd.c **** /**
 272:Drivers/STM32F1xx_HAL_Driver/Src/stm32f1xx_hal_pcd.c ****   * @}
 273:Drivers/STM32F1xx_HAL_Driver/Src/stm32f1xx_hal_pcd.c ****   */
 274:Drivers/STM32F1xx_HAL_Driver/Src/stm32f1xx_hal_pcd.c **** 
 275:Drivers/STM32F1xx_HAL_Driver/Src/stm32f1xx_hal_pcd.c **** /** @defgroup PCD_Exported_Functions_Group2 IO operation functions 
 276:Drivers/STM32F1xx_HAL_Driver/Src/stm32f1xx_hal_pcd.c ****  *  @brief   Data transfers functions 
 277:Drivers/STM32F1xx_HAL_Driver/Src/stm32f1xx_hal_pcd.c ****  *
 278:Drivers/STM32F1xx_HAL_Driver/Src/stm32f1xx_hal_pcd.c **** @verbatim
 279:Drivers/STM32F1xx_HAL_Driver/Src/stm32f1xx_hal_pcd.c ****  ===============================================================================
 280:Drivers/STM32F1xx_HAL_Driver/Src/stm32f1xx_hal_pcd.c ****                       ##### IO operation functions #####
 281:Drivers/STM32F1xx_HAL_Driver/Src/stm32f1xx_hal_pcd.c ****  ===============================================================================
 282:Drivers/STM32F1xx_HAL_Driver/Src/stm32f1xx_hal_pcd.c ****     [..]
ARM GAS  C:\Users\Eemeli\AppData\Local\Temp\cccfLE7k.s 			page 12


 283:Drivers/STM32F1xx_HAL_Driver/Src/stm32f1xx_hal_pcd.c ****     This subsection provides a set of functions allowing to manage the PCD data 
 284:Drivers/STM32F1xx_HAL_Driver/Src/stm32f1xx_hal_pcd.c ****     transfers.
 285:Drivers/STM32F1xx_HAL_Driver/Src/stm32f1xx_hal_pcd.c **** 
 286:Drivers/STM32F1xx_HAL_Driver/Src/stm32f1xx_hal_pcd.c **** @endverbatim
 287:Drivers/STM32F1xx_HAL_Driver/Src/stm32f1xx_hal_pcd.c ****   * @{
 288:Drivers/STM32F1xx_HAL_Driver/Src/stm32f1xx_hal_pcd.c ****   */
 289:Drivers/STM32F1xx_HAL_Driver/Src/stm32f1xx_hal_pcd.c **** 
 290:Drivers/STM32F1xx_HAL_Driver/Src/stm32f1xx_hal_pcd.c **** /**
 291:Drivers/STM32F1xx_HAL_Driver/Src/stm32f1xx_hal_pcd.c ****   * @brief  Start The USB Device.
 292:Drivers/STM32F1xx_HAL_Driver/Src/stm32f1xx_hal_pcd.c ****   * @param  hpcd: PCD handle
 293:Drivers/STM32F1xx_HAL_Driver/Src/stm32f1xx_hal_pcd.c ****   * @retval HAL status
 294:Drivers/STM32F1xx_HAL_Driver/Src/stm32f1xx_hal_pcd.c ****   */
 295:Drivers/STM32F1xx_HAL_Driver/Src/stm32f1xx_hal_pcd.c **** HAL_StatusTypeDef HAL_PCD_Start(PCD_HandleTypeDef *hpcd)
 296:Drivers/STM32F1xx_HAL_Driver/Src/stm32f1xx_hal_pcd.c **** {
 281              		.loc 1 296 1 is_stmt 1 view -0
 282              		.cfi_startproc
 283              		@ args = 0, pretend = 0, frame = 0
 284              		@ frame_needed = 0, uses_anonymous_args = 0
 297:Drivers/STM32F1xx_HAL_Driver/Src/stm32f1xx_hal_pcd.c ****   __HAL_LOCK(hpcd);
 285              		.loc 1 297 3 view .LVU76
 286              		.loc 1 297 3 view .LVU77
 287 0000 90F82834 		ldrb	r3, [r0, #1064]	@ zero_extendqisi2
 288 0004 012B     		cmp	r3, #1
 289 0006 10D0     		beq	.L19
 290              		.loc 1 297 3 discriminator 2 view .LVU78
 291 0008 0121     		movs	r1, #1
 296:Drivers/STM32F1xx_HAL_Driver/Src/stm32f1xx_hal_pcd.c ****   __HAL_LOCK(hpcd);
 292              		.loc 1 296 1 is_stmt 0 discriminator 2 view .LVU79
 293 000a 10B5     		push	{r4, lr}
 294              	.LCFI5:
 295              		.cfi_def_cfa_offset 8
 296              		.cfi_offset 4, -8
 297              		.cfi_offset 14, -4
 298 000c 0446     		mov	r4, r0
 299              		.loc 1 297 3 discriminator 2 view .LVU80
 300 000e 80F82814 		strb	r1, [r0, #1064]
 298:Drivers/STM32F1xx_HAL_Driver/Src/stm32f1xx_hal_pcd.c ****   HAL_PCDEx_SetConnectionState (hpcd, 1);
 301              		.loc 1 298 3 is_stmt 1 discriminator 2 view .LVU81
 302 0012 FFF7FEFF 		bl	HAL_PCDEx_SetConnectionState
 303              	.LVL20:
 299:Drivers/STM32F1xx_HAL_Driver/Src/stm32f1xx_hal_pcd.c ****   USB_DevConnect (hpcd->Instance);
 304              		.loc 1 299 3 discriminator 2 view .LVU82
 305 0016 2068     		ldr	r0, [r4]
 306 0018 FFF7FEFF 		bl	USB_DevConnect
 307              	.LVL21:
 300:Drivers/STM32F1xx_HAL_Driver/Src/stm32f1xx_hal_pcd.c ****   __HAL_PCD_ENABLE(hpcd);
 308              		.loc 1 300 3 discriminator 2 view .LVU83
 309 001c 2068     		ldr	r0, [r4]
 310 001e FFF7FEFF 		bl	USB_EnableGlobalInt
 311              	.LVL22:
 301:Drivers/STM32F1xx_HAL_Driver/Src/stm32f1xx_hal_pcd.c ****   __HAL_UNLOCK(hpcd);
 312              		.loc 1 301 3 discriminator 2 view .LVU84
 313              		.loc 1 301 3 discriminator 2 view .LVU85
 314 0022 0020     		movs	r0, #0
 315 0024 84F82804 		strb	r0, [r4, #1064]
 302:Drivers/STM32F1xx_HAL_Driver/Src/stm32f1xx_hal_pcd.c ****   return HAL_OK;
 316              		.loc 1 302 3 discriminator 2 view .LVU86
ARM GAS  C:\Users\Eemeli\AppData\Local\Temp\cccfLE7k.s 			page 13


 303:Drivers/STM32F1xx_HAL_Driver/Src/stm32f1xx_hal_pcd.c **** }
 317              		.loc 1 303 1 is_stmt 0 discriminator 2 view .LVU87
 318 0028 10BD     		pop	{r4, pc}
 319              	.LVL23:
 320              	.L19:
 321              	.LCFI6:
 322              		.cfi_def_cfa_offset 0
 323              		.cfi_restore 4
 324              		.cfi_restore 14
 297:Drivers/STM32F1xx_HAL_Driver/Src/stm32f1xx_hal_pcd.c ****   HAL_PCDEx_SetConnectionState (hpcd, 1);
 325              		.loc 1 297 3 view .LVU88
 326 002a 0220     		movs	r0, #2
 327              	.LVL24:
 328              		.loc 1 303 1 view .LVU89
 329 002c 7047     		bx	lr
 330              		.cfi_endproc
 331              	.LFE70:
 333 002e 00BF     		.section	.text.HAL_PCD_Stop,"ax",%progbits
 334              		.align	1
 335              		.p2align 2,,3
 336              		.global	HAL_PCD_Stop
 337              		.syntax unified
 338              		.thumb
 339              		.thumb_func
 340              		.fpu softvfp
 342              	HAL_PCD_Stop:
 343              	.LVL25:
 344              	.LFB71:
 304:Drivers/STM32F1xx_HAL_Driver/Src/stm32f1xx_hal_pcd.c **** 
 305:Drivers/STM32F1xx_HAL_Driver/Src/stm32f1xx_hal_pcd.c **** /**
 306:Drivers/STM32F1xx_HAL_Driver/Src/stm32f1xx_hal_pcd.c ****   * @brief  Stop The USB Device.
 307:Drivers/STM32F1xx_HAL_Driver/Src/stm32f1xx_hal_pcd.c ****   * @param  hpcd: PCD handle
 308:Drivers/STM32F1xx_HAL_Driver/Src/stm32f1xx_hal_pcd.c ****   * @retval HAL status
 309:Drivers/STM32F1xx_HAL_Driver/Src/stm32f1xx_hal_pcd.c ****   */
 310:Drivers/STM32F1xx_HAL_Driver/Src/stm32f1xx_hal_pcd.c **** HAL_StatusTypeDef HAL_PCD_Stop(PCD_HandleTypeDef *hpcd)
 311:Drivers/STM32F1xx_HAL_Driver/Src/stm32f1xx_hal_pcd.c **** {
 345              		.loc 1 311 1 is_stmt 1 view -0
 346              		.cfi_startproc
 347              		@ args = 0, pretend = 0, frame = 0
 348              		@ frame_needed = 0, uses_anonymous_args = 0
 312:Drivers/STM32F1xx_HAL_Driver/Src/stm32f1xx_hal_pcd.c ****   __HAL_LOCK(hpcd);
 349              		.loc 1 312 3 view .LVU91
 350              		.loc 1 312 3 view .LVU92
 351 0000 90F82834 		ldrb	r3, [r0, #1064]	@ zero_extendqisi2
 352 0004 012B     		cmp	r3, #1
 353 0006 11D0     		beq	.L26
 354              		.loc 1 312 3 discriminator 2 view .LVU93
 311:Drivers/STM32F1xx_HAL_Driver/Src/stm32f1xx_hal_pcd.c ****   __HAL_LOCK(hpcd);
 355              		.loc 1 311 1 is_stmt 0 discriminator 2 view .LVU94
 356 0008 10B5     		push	{r4, lr}
 357              	.LCFI7:
 358              		.cfi_def_cfa_offset 8
 359              		.cfi_offset 4, -8
 360              		.cfi_offset 14, -4
 361              		.loc 1 312 3 discriminator 2 view .LVU95
 362 000a 0123     		movs	r3, #1
 363 000c 0446     		mov	r4, r0
ARM GAS  C:\Users\Eemeli\AppData\Local\Temp\cccfLE7k.s 			page 14


 313:Drivers/STM32F1xx_HAL_Driver/Src/stm32f1xx_hal_pcd.c ****   __HAL_PCD_DISABLE(hpcd);
 364              		.loc 1 313 3 discriminator 2 view .LVU96
 365 000e 0068     		ldr	r0, [r0]
 366              	.LVL26:
 312:Drivers/STM32F1xx_HAL_Driver/Src/stm32f1xx_hal_pcd.c ****   __HAL_LOCK(hpcd);
 367              		.loc 1 312 3 discriminator 2 view .LVU97
 368 0010 84F82834 		strb	r3, [r4, #1064]
 369              		.loc 1 313 3 is_stmt 1 discriminator 2 view .LVU98
 370 0014 FFF7FEFF 		bl	USB_DisableGlobalInt
 371              	.LVL27:
 314:Drivers/STM32F1xx_HAL_Driver/Src/stm32f1xx_hal_pcd.c ****   USB_StopDevice(hpcd->Instance);
 372              		.loc 1 314 3 discriminator 2 view .LVU99
 373 0018 2068     		ldr	r0, [r4]
 374 001a FFF7FEFF 		bl	USB_StopDevice
 375              	.LVL28:
 315:Drivers/STM32F1xx_HAL_Driver/Src/stm32f1xx_hal_pcd.c ****   USB_DevDisconnect (hpcd->Instance);
 376              		.loc 1 315 3 discriminator 2 view .LVU100
 377 001e 2068     		ldr	r0, [r4]
 378 0020 FFF7FEFF 		bl	USB_DevDisconnect
 379              	.LVL29:
 316:Drivers/STM32F1xx_HAL_Driver/Src/stm32f1xx_hal_pcd.c ****   __HAL_UNLOCK(hpcd);
 380              		.loc 1 316 3 discriminator 2 view .LVU101
 381              		.loc 1 316 3 discriminator 2 view .LVU102
 382 0024 0020     		movs	r0, #0
 383 0026 84F82804 		strb	r0, [r4, #1064]
 317:Drivers/STM32F1xx_HAL_Driver/Src/stm32f1xx_hal_pcd.c ****   return HAL_OK;
 384              		.loc 1 317 3 discriminator 2 view .LVU103
 318:Drivers/STM32F1xx_HAL_Driver/Src/stm32f1xx_hal_pcd.c **** }
 385              		.loc 1 318 1 is_stmt 0 discriminator 2 view .LVU104
 386 002a 10BD     		pop	{r4, pc}
 387              	.LVL30:
 388              	.L26:
 389              	.LCFI8:
 390              		.cfi_def_cfa_offset 0
 391              		.cfi_restore 4
 392              		.cfi_restore 14
 312:Drivers/STM32F1xx_HAL_Driver/Src/stm32f1xx_hal_pcd.c ****   __HAL_PCD_DISABLE(hpcd);
 393              		.loc 1 312 3 view .LVU105
 394 002c 0220     		movs	r0, #2
 395              	.LVL31:
 396              		.loc 1 318 1 view .LVU106
 397 002e 7047     		bx	lr
 398              		.cfi_endproc
 399              	.LFE71:
 401              		.section	.text.HAL_PCD_DeInit,"ax",%progbits
 402              		.align	1
 403              		.p2align 2,,3
 404              		.global	HAL_PCD_DeInit
 405              		.syntax unified
 406              		.thumb
 407              		.thumb_func
 408              		.fpu softvfp
 410              	HAL_PCD_DeInit:
 411              	.LVL32:
 412              	.LFB67:
 223:Drivers/STM32F1xx_HAL_Driver/Src/stm32f1xx_hal_pcd.c ****   /* Check the PCD handle allocation */
 413              		.loc 1 223 1 is_stmt 1 view -0
ARM GAS  C:\Users\Eemeli\AppData\Local\Temp\cccfLE7k.s 			page 15


 414              		.cfi_startproc
 415              		@ args = 0, pretend = 0, frame = 0
 416              		@ frame_needed = 0, uses_anonymous_args = 0
 225:Drivers/STM32F1xx_HAL_Driver/Src/stm32f1xx_hal_pcd.c ****   {
 417              		.loc 1 225 3 view .LVU108
 225:Drivers/STM32F1xx_HAL_Driver/Src/stm32f1xx_hal_pcd.c ****   {
 418              		.loc 1 225 5 is_stmt 0 view .LVU109
 419 0000 68B1     		cbz	r0, .L33
 230:Drivers/STM32F1xx_HAL_Driver/Src/stm32f1xx_hal_pcd.c ****   
 420              		.loc 1 230 15 view .LVU110
 421 0002 0323     		movs	r3, #3
 223:Drivers/STM32F1xx_HAL_Driver/Src/stm32f1xx_hal_pcd.c ****   /* Check the PCD handle allocation */
 422              		.loc 1 223 1 view .LVU111
 423 0004 10B5     		push	{r4, lr}
 424              	.LCFI9:
 425              		.cfi_def_cfa_offset 8
 426              		.cfi_offset 4, -8
 427              		.cfi_offset 14, -4
 428 0006 0446     		mov	r4, r0
 230:Drivers/STM32F1xx_HAL_Driver/Src/stm32f1xx_hal_pcd.c ****   
 429              		.loc 1 230 3 is_stmt 1 view .LVU112
 230:Drivers/STM32F1xx_HAL_Driver/Src/stm32f1xx_hal_pcd.c ****   
 430              		.loc 1 230 15 is_stmt 0 view .LVU113
 431 0008 80F82934 		strb	r3, [r0, #1065]
 233:Drivers/STM32F1xx_HAL_Driver/Src/stm32f1xx_hal_pcd.c ****   
 432              		.loc 1 233 3 is_stmt 1 view .LVU114
 433 000c FFF7FEFF 		bl	HAL_PCD_Stop
 434              	.LVL33:
 236:Drivers/STM32F1xx_HAL_Driver/Src/stm32f1xx_hal_pcd.c ****   
 435              		.loc 1 236 3 view .LVU115
 436 0010 2046     		mov	r0, r4
 437 0012 FFF7FEFF 		bl	HAL_PCD_MspDeInit
 438              	.LVL34:
 238:Drivers/STM32F1xx_HAL_Driver/Src/stm32f1xx_hal_pcd.c ****   
 439              		.loc 1 238 3 view .LVU116
 238:Drivers/STM32F1xx_HAL_Driver/Src/stm32f1xx_hal_pcd.c ****   
 440              		.loc 1 238 15 is_stmt 0 view .LVU117
 441 0016 0020     		movs	r0, #0
 442 0018 84F82904 		strb	r0, [r4, #1065]
 240:Drivers/STM32F1xx_HAL_Driver/Src/stm32f1xx_hal_pcd.c **** }
 443              		.loc 1 240 3 is_stmt 1 view .LVU118
 241:Drivers/STM32F1xx_HAL_Driver/Src/stm32f1xx_hal_pcd.c **** 
 444              		.loc 1 241 1 is_stmt 0 view .LVU119
 445 001c 10BD     		pop	{r4, pc}
 446              	.LVL35:
 447              	.L33:
 448              	.LCFI10:
 449              		.cfi_def_cfa_offset 0
 450              		.cfi_restore 4
 451              		.cfi_restore 14
 227:Drivers/STM32F1xx_HAL_Driver/Src/stm32f1xx_hal_pcd.c ****   }
 452              		.loc 1 227 12 view .LVU120
 453 001e 0120     		movs	r0, #1
 454              	.LVL36:
 241:Drivers/STM32F1xx_HAL_Driver/Src/stm32f1xx_hal_pcd.c **** 
 455              		.loc 1 241 1 view .LVU121
 456 0020 7047     		bx	lr
ARM GAS  C:\Users\Eemeli\AppData\Local\Temp\cccfLE7k.s 			page 16


 457              		.cfi_endproc
 458              	.LFE67:
 460 0022 00BF     		.section	.text.HAL_PCD_DataOutStageCallback,"ax",%progbits
 461              		.align	1
 462              		.p2align 2,,3
 463              		.weak	HAL_PCD_DataOutStageCallback
 464              		.syntax unified
 465              		.thumb
 466              		.thumb_func
 467              		.fpu softvfp
 469              	HAL_PCD_DataOutStageCallback:
 470              	.LVL37:
 471              	.LFB73:
 319:Drivers/STM32F1xx_HAL_Driver/Src/stm32f1xx_hal_pcd.c **** 
 320:Drivers/STM32F1xx_HAL_Driver/Src/stm32f1xx_hal_pcd.c **** #if defined (USB_OTG_FS)
 321:Drivers/STM32F1xx_HAL_Driver/Src/stm32f1xx_hal_pcd.c **** /**
 322:Drivers/STM32F1xx_HAL_Driver/Src/stm32f1xx_hal_pcd.c ****   * @brief  This function handles PCD interrupt request.
 323:Drivers/STM32F1xx_HAL_Driver/Src/stm32f1xx_hal_pcd.c ****   * @param  hpcd: PCD handle
 324:Drivers/STM32F1xx_HAL_Driver/Src/stm32f1xx_hal_pcd.c ****   * @retval HAL status
 325:Drivers/STM32F1xx_HAL_Driver/Src/stm32f1xx_hal_pcd.c ****   */
 326:Drivers/STM32F1xx_HAL_Driver/Src/stm32f1xx_hal_pcd.c **** void HAL_PCD_IRQHandler(PCD_HandleTypeDef *hpcd)
 327:Drivers/STM32F1xx_HAL_Driver/Src/stm32f1xx_hal_pcd.c **** {
 328:Drivers/STM32F1xx_HAL_Driver/Src/stm32f1xx_hal_pcd.c ****   USB_OTG_GlobalTypeDef *USBx = hpcd->Instance;
 329:Drivers/STM32F1xx_HAL_Driver/Src/stm32f1xx_hal_pcd.c ****   uint32_t index = 0U, ep_intr = 0U, epint = 0U, epnum = 0U;
 330:Drivers/STM32F1xx_HAL_Driver/Src/stm32f1xx_hal_pcd.c ****   uint32_t fifoemptymsk = 0U, temp = 0U;
 331:Drivers/STM32F1xx_HAL_Driver/Src/stm32f1xx_hal_pcd.c ****   USB_OTG_EPTypeDef *ep = NULL;
 332:Drivers/STM32F1xx_HAL_Driver/Src/stm32f1xx_hal_pcd.c ****   
 333:Drivers/STM32F1xx_HAL_Driver/Src/stm32f1xx_hal_pcd.c ****   /* ensure that we are in device mode */
 334:Drivers/STM32F1xx_HAL_Driver/Src/stm32f1xx_hal_pcd.c ****   if (USB_GetMode(hpcd->Instance) == USB_OTG_MODE_DEVICE)
 335:Drivers/STM32F1xx_HAL_Driver/Src/stm32f1xx_hal_pcd.c ****   {
 336:Drivers/STM32F1xx_HAL_Driver/Src/stm32f1xx_hal_pcd.c ****     /* avoid spurious interrupt */
 337:Drivers/STM32F1xx_HAL_Driver/Src/stm32f1xx_hal_pcd.c ****     if(__HAL_PCD_IS_INVALID_INTERRUPT(hpcd))
 338:Drivers/STM32F1xx_HAL_Driver/Src/stm32f1xx_hal_pcd.c ****     {
 339:Drivers/STM32F1xx_HAL_Driver/Src/stm32f1xx_hal_pcd.c ****       return;
 340:Drivers/STM32F1xx_HAL_Driver/Src/stm32f1xx_hal_pcd.c ****     }
 341:Drivers/STM32F1xx_HAL_Driver/Src/stm32f1xx_hal_pcd.c ****     
 342:Drivers/STM32F1xx_HAL_Driver/Src/stm32f1xx_hal_pcd.c ****     if(__HAL_PCD_GET_FLAG(hpcd, USB_OTG_GINTSTS_MMIS))
 343:Drivers/STM32F1xx_HAL_Driver/Src/stm32f1xx_hal_pcd.c ****     {
 344:Drivers/STM32F1xx_HAL_Driver/Src/stm32f1xx_hal_pcd.c ****      /* incorrect mode, acknowledge the interrupt */
 345:Drivers/STM32F1xx_HAL_Driver/Src/stm32f1xx_hal_pcd.c ****       __HAL_PCD_CLEAR_FLAG(hpcd, USB_OTG_GINTSTS_MMIS);
 346:Drivers/STM32F1xx_HAL_Driver/Src/stm32f1xx_hal_pcd.c ****     }
 347:Drivers/STM32F1xx_HAL_Driver/Src/stm32f1xx_hal_pcd.c ****     
 348:Drivers/STM32F1xx_HAL_Driver/Src/stm32f1xx_hal_pcd.c ****     if(__HAL_PCD_GET_FLAG(hpcd, USB_OTG_GINTSTS_OEPINT))
 349:Drivers/STM32F1xx_HAL_Driver/Src/stm32f1xx_hal_pcd.c ****     {
 350:Drivers/STM32F1xx_HAL_Driver/Src/stm32f1xx_hal_pcd.c ****       epnum = 0U;
 351:Drivers/STM32F1xx_HAL_Driver/Src/stm32f1xx_hal_pcd.c ****       
 352:Drivers/STM32F1xx_HAL_Driver/Src/stm32f1xx_hal_pcd.c ****       /* Read in the device interrupt bits */
 353:Drivers/STM32F1xx_HAL_Driver/Src/stm32f1xx_hal_pcd.c ****       ep_intr = USB_ReadDevAllOutEpInterrupt(hpcd->Instance);
 354:Drivers/STM32F1xx_HAL_Driver/Src/stm32f1xx_hal_pcd.c ****       
 355:Drivers/STM32F1xx_HAL_Driver/Src/stm32f1xx_hal_pcd.c ****       while ( ep_intr )
 356:Drivers/STM32F1xx_HAL_Driver/Src/stm32f1xx_hal_pcd.c ****       {
 357:Drivers/STM32F1xx_HAL_Driver/Src/stm32f1xx_hal_pcd.c ****         if (ep_intr & 0x1U)
 358:Drivers/STM32F1xx_HAL_Driver/Src/stm32f1xx_hal_pcd.c ****         {
 359:Drivers/STM32F1xx_HAL_Driver/Src/stm32f1xx_hal_pcd.c ****           epint = USB_ReadDevOutEPInterrupt(hpcd->Instance, epnum);
 360:Drivers/STM32F1xx_HAL_Driver/Src/stm32f1xx_hal_pcd.c ****           
 361:Drivers/STM32F1xx_HAL_Driver/Src/stm32f1xx_hal_pcd.c ****           if(( epint & USB_OTG_DOEPINT_XFRC) == USB_OTG_DOEPINT_XFRC)
 362:Drivers/STM32F1xx_HAL_Driver/Src/stm32f1xx_hal_pcd.c ****           {
ARM GAS  C:\Users\Eemeli\AppData\Local\Temp\cccfLE7k.s 			page 17


 363:Drivers/STM32F1xx_HAL_Driver/Src/stm32f1xx_hal_pcd.c ****             CLEAR_OUT_EP_INTR(epnum, USB_OTG_DOEPINT_XFRC);
 364:Drivers/STM32F1xx_HAL_Driver/Src/stm32f1xx_hal_pcd.c ****             
 365:Drivers/STM32F1xx_HAL_Driver/Src/stm32f1xx_hal_pcd.c ****             HAL_PCD_DataOutStageCallback(hpcd, epnum);
 366:Drivers/STM32F1xx_HAL_Driver/Src/stm32f1xx_hal_pcd.c ****           }
 367:Drivers/STM32F1xx_HAL_Driver/Src/stm32f1xx_hal_pcd.c ****           
 368:Drivers/STM32F1xx_HAL_Driver/Src/stm32f1xx_hal_pcd.c ****           if(( epint & USB_OTG_DOEPINT_STUP) == USB_OTG_DOEPINT_STUP)
 369:Drivers/STM32F1xx_HAL_Driver/Src/stm32f1xx_hal_pcd.c ****           {
 370:Drivers/STM32F1xx_HAL_Driver/Src/stm32f1xx_hal_pcd.c ****             /* Inform the upper layer that a setup packet is available */
 371:Drivers/STM32F1xx_HAL_Driver/Src/stm32f1xx_hal_pcd.c ****             HAL_PCD_SetupStageCallback(hpcd);
 372:Drivers/STM32F1xx_HAL_Driver/Src/stm32f1xx_hal_pcd.c ****             CLEAR_OUT_EP_INTR(epnum, USB_OTG_DOEPINT_STUP);
 373:Drivers/STM32F1xx_HAL_Driver/Src/stm32f1xx_hal_pcd.c ****           }
 374:Drivers/STM32F1xx_HAL_Driver/Src/stm32f1xx_hal_pcd.c ****           
 375:Drivers/STM32F1xx_HAL_Driver/Src/stm32f1xx_hal_pcd.c ****           if(( epint & USB_OTG_DOEPINT_OTEPDIS) == USB_OTG_DOEPINT_OTEPDIS)
 376:Drivers/STM32F1xx_HAL_Driver/Src/stm32f1xx_hal_pcd.c ****           {
 377:Drivers/STM32F1xx_HAL_Driver/Src/stm32f1xx_hal_pcd.c ****             CLEAR_OUT_EP_INTR(epnum, USB_OTG_DOEPINT_OTEPDIS);
 378:Drivers/STM32F1xx_HAL_Driver/Src/stm32f1xx_hal_pcd.c ****           }
 379:Drivers/STM32F1xx_HAL_Driver/Src/stm32f1xx_hal_pcd.c ****         }
 380:Drivers/STM32F1xx_HAL_Driver/Src/stm32f1xx_hal_pcd.c ****         epnum++;
 381:Drivers/STM32F1xx_HAL_Driver/Src/stm32f1xx_hal_pcd.c ****         ep_intr >>= 1U;
 382:Drivers/STM32F1xx_HAL_Driver/Src/stm32f1xx_hal_pcd.c ****       }
 383:Drivers/STM32F1xx_HAL_Driver/Src/stm32f1xx_hal_pcd.c ****     }
 384:Drivers/STM32F1xx_HAL_Driver/Src/stm32f1xx_hal_pcd.c ****     
 385:Drivers/STM32F1xx_HAL_Driver/Src/stm32f1xx_hal_pcd.c ****     if(__HAL_PCD_GET_FLAG(hpcd, USB_OTG_GINTSTS_IEPINT))
 386:Drivers/STM32F1xx_HAL_Driver/Src/stm32f1xx_hal_pcd.c ****     {
 387:Drivers/STM32F1xx_HAL_Driver/Src/stm32f1xx_hal_pcd.c ****       /* Read in the device interrupt bits */
 388:Drivers/STM32F1xx_HAL_Driver/Src/stm32f1xx_hal_pcd.c ****       ep_intr = USB_ReadDevAllInEpInterrupt(hpcd->Instance);
 389:Drivers/STM32F1xx_HAL_Driver/Src/stm32f1xx_hal_pcd.c ****       
 390:Drivers/STM32F1xx_HAL_Driver/Src/stm32f1xx_hal_pcd.c ****       epnum = 0U;
 391:Drivers/STM32F1xx_HAL_Driver/Src/stm32f1xx_hal_pcd.c ****       
 392:Drivers/STM32F1xx_HAL_Driver/Src/stm32f1xx_hal_pcd.c ****       while ( ep_intr )
 393:Drivers/STM32F1xx_HAL_Driver/Src/stm32f1xx_hal_pcd.c ****       {
 394:Drivers/STM32F1xx_HAL_Driver/Src/stm32f1xx_hal_pcd.c ****         if (ep_intr & 0x1U) /* In ITR */
 395:Drivers/STM32F1xx_HAL_Driver/Src/stm32f1xx_hal_pcd.c ****         {
 396:Drivers/STM32F1xx_HAL_Driver/Src/stm32f1xx_hal_pcd.c ****           epint = USB_ReadDevInEPInterrupt(hpcd->Instance, epnum);
 397:Drivers/STM32F1xx_HAL_Driver/Src/stm32f1xx_hal_pcd.c **** 
 398:Drivers/STM32F1xx_HAL_Driver/Src/stm32f1xx_hal_pcd.c ****           if(( epint & USB_OTG_DIEPINT_XFRC) == USB_OTG_DIEPINT_XFRC)
 399:Drivers/STM32F1xx_HAL_Driver/Src/stm32f1xx_hal_pcd.c ****           {
 400:Drivers/STM32F1xx_HAL_Driver/Src/stm32f1xx_hal_pcd.c ****             fifoemptymsk = 0x1U << epnum;
 401:Drivers/STM32F1xx_HAL_Driver/Src/stm32f1xx_hal_pcd.c ****             USBx_DEVICE->DIEPEMPMSK &= ~fifoemptymsk;
 402:Drivers/STM32F1xx_HAL_Driver/Src/stm32f1xx_hal_pcd.c ****             
 403:Drivers/STM32F1xx_HAL_Driver/Src/stm32f1xx_hal_pcd.c ****             CLEAR_IN_EP_INTR(epnum, USB_OTG_DIEPINT_XFRC);
 404:Drivers/STM32F1xx_HAL_Driver/Src/stm32f1xx_hal_pcd.c ****             
 405:Drivers/STM32F1xx_HAL_Driver/Src/stm32f1xx_hal_pcd.c ****             HAL_PCD_DataInStageCallback(hpcd, epnum);
 406:Drivers/STM32F1xx_HAL_Driver/Src/stm32f1xx_hal_pcd.c ****           }
 407:Drivers/STM32F1xx_HAL_Driver/Src/stm32f1xx_hal_pcd.c ****           if(( epint & USB_OTG_DIEPINT_TOC) == USB_OTG_DIEPINT_TOC)
 408:Drivers/STM32F1xx_HAL_Driver/Src/stm32f1xx_hal_pcd.c ****           {
 409:Drivers/STM32F1xx_HAL_Driver/Src/stm32f1xx_hal_pcd.c ****             CLEAR_IN_EP_INTR(epnum, USB_OTG_DIEPINT_TOC);
 410:Drivers/STM32F1xx_HAL_Driver/Src/stm32f1xx_hal_pcd.c ****           }
 411:Drivers/STM32F1xx_HAL_Driver/Src/stm32f1xx_hal_pcd.c ****           if(( epint & USB_OTG_DIEPINT_ITTXFE) == USB_OTG_DIEPINT_ITTXFE)
 412:Drivers/STM32F1xx_HAL_Driver/Src/stm32f1xx_hal_pcd.c ****           {
 413:Drivers/STM32F1xx_HAL_Driver/Src/stm32f1xx_hal_pcd.c ****             CLEAR_IN_EP_INTR(epnum, USB_OTG_DIEPINT_ITTXFE);
 414:Drivers/STM32F1xx_HAL_Driver/Src/stm32f1xx_hal_pcd.c ****           }
 415:Drivers/STM32F1xx_HAL_Driver/Src/stm32f1xx_hal_pcd.c ****           if(( epint & USB_OTG_DIEPINT_INEPNE) == USB_OTG_DIEPINT_INEPNE)
 416:Drivers/STM32F1xx_HAL_Driver/Src/stm32f1xx_hal_pcd.c ****           {
 417:Drivers/STM32F1xx_HAL_Driver/Src/stm32f1xx_hal_pcd.c ****             CLEAR_IN_EP_INTR(epnum, USB_OTG_DIEPINT_INEPNE);
 418:Drivers/STM32F1xx_HAL_Driver/Src/stm32f1xx_hal_pcd.c ****           }
 419:Drivers/STM32F1xx_HAL_Driver/Src/stm32f1xx_hal_pcd.c ****           if(( epint & USB_OTG_DIEPINT_EPDISD) == USB_OTG_DIEPINT_EPDISD)
ARM GAS  C:\Users\Eemeli\AppData\Local\Temp\cccfLE7k.s 			page 18


 420:Drivers/STM32F1xx_HAL_Driver/Src/stm32f1xx_hal_pcd.c ****           {
 421:Drivers/STM32F1xx_HAL_Driver/Src/stm32f1xx_hal_pcd.c ****             CLEAR_IN_EP_INTR(epnum, USB_OTG_DIEPINT_EPDISD);
 422:Drivers/STM32F1xx_HAL_Driver/Src/stm32f1xx_hal_pcd.c ****           }
 423:Drivers/STM32F1xx_HAL_Driver/Src/stm32f1xx_hal_pcd.c ****           if(( epint & USB_OTG_DIEPINT_TXFE) == USB_OTG_DIEPINT_TXFE)
 424:Drivers/STM32F1xx_HAL_Driver/Src/stm32f1xx_hal_pcd.c ****           {
 425:Drivers/STM32F1xx_HAL_Driver/Src/stm32f1xx_hal_pcd.c ****             PCD_WriteEmptyTxFifo(hpcd , epnum);
 426:Drivers/STM32F1xx_HAL_Driver/Src/stm32f1xx_hal_pcd.c ****           }
 427:Drivers/STM32F1xx_HAL_Driver/Src/stm32f1xx_hal_pcd.c ****         }
 428:Drivers/STM32F1xx_HAL_Driver/Src/stm32f1xx_hal_pcd.c ****         epnum++;
 429:Drivers/STM32F1xx_HAL_Driver/Src/stm32f1xx_hal_pcd.c ****         ep_intr >>= 1U;
 430:Drivers/STM32F1xx_HAL_Driver/Src/stm32f1xx_hal_pcd.c ****       }
 431:Drivers/STM32F1xx_HAL_Driver/Src/stm32f1xx_hal_pcd.c ****     }
 432:Drivers/STM32F1xx_HAL_Driver/Src/stm32f1xx_hal_pcd.c ****     
 433:Drivers/STM32F1xx_HAL_Driver/Src/stm32f1xx_hal_pcd.c ****     /* Handle Resume Interrupt */
 434:Drivers/STM32F1xx_HAL_Driver/Src/stm32f1xx_hal_pcd.c ****     if(__HAL_PCD_GET_FLAG(hpcd, USB_OTG_GINTSTS_WKUINT))
 435:Drivers/STM32F1xx_HAL_Driver/Src/stm32f1xx_hal_pcd.c ****     {
 436:Drivers/STM32F1xx_HAL_Driver/Src/stm32f1xx_hal_pcd.c ****      /* Clear the Remote Wake-up signalling */
 437:Drivers/STM32F1xx_HAL_Driver/Src/stm32f1xx_hal_pcd.c ****       USBx_DEVICE->DCTL &= ~USB_OTG_DCTL_RWUSIG;
 438:Drivers/STM32F1xx_HAL_Driver/Src/stm32f1xx_hal_pcd.c ****      
 439:Drivers/STM32F1xx_HAL_Driver/Src/stm32f1xx_hal_pcd.c ****      HAL_PCD_ResumeCallback(hpcd);
 440:Drivers/STM32F1xx_HAL_Driver/Src/stm32f1xx_hal_pcd.c ****      
 441:Drivers/STM32F1xx_HAL_Driver/Src/stm32f1xx_hal_pcd.c ****      __HAL_PCD_CLEAR_FLAG(hpcd, USB_OTG_GINTSTS_WKUINT);
 442:Drivers/STM32F1xx_HAL_Driver/Src/stm32f1xx_hal_pcd.c ****     }
 443:Drivers/STM32F1xx_HAL_Driver/Src/stm32f1xx_hal_pcd.c ****     
 444:Drivers/STM32F1xx_HAL_Driver/Src/stm32f1xx_hal_pcd.c ****     /* Handle Suspend Interrupt */
 445:Drivers/STM32F1xx_HAL_Driver/Src/stm32f1xx_hal_pcd.c ****     if(__HAL_PCD_GET_FLAG(hpcd, USB_OTG_GINTSTS_USBSUSP))
 446:Drivers/STM32F1xx_HAL_Driver/Src/stm32f1xx_hal_pcd.c ****     {
 447:Drivers/STM32F1xx_HAL_Driver/Src/stm32f1xx_hal_pcd.c ****       if((USBx_DEVICE->DSTS & USB_OTG_DSTS_SUSPSTS) == USB_OTG_DSTS_SUSPSTS)
 448:Drivers/STM32F1xx_HAL_Driver/Src/stm32f1xx_hal_pcd.c ****       {
 449:Drivers/STM32F1xx_HAL_Driver/Src/stm32f1xx_hal_pcd.c ****         
 450:Drivers/STM32F1xx_HAL_Driver/Src/stm32f1xx_hal_pcd.c ****         HAL_PCD_SuspendCallback(hpcd);
 451:Drivers/STM32F1xx_HAL_Driver/Src/stm32f1xx_hal_pcd.c ****       }
 452:Drivers/STM32F1xx_HAL_Driver/Src/stm32f1xx_hal_pcd.c ****       __HAL_PCD_CLEAR_FLAG(hpcd, USB_OTG_GINTSTS_USBSUSP);
 453:Drivers/STM32F1xx_HAL_Driver/Src/stm32f1xx_hal_pcd.c ****     }
 454:Drivers/STM32F1xx_HAL_Driver/Src/stm32f1xx_hal_pcd.c **** 
 455:Drivers/STM32F1xx_HAL_Driver/Src/stm32f1xx_hal_pcd.c ****     /* Handle Reset Interrupt */
 456:Drivers/STM32F1xx_HAL_Driver/Src/stm32f1xx_hal_pcd.c ****     if(__HAL_PCD_GET_FLAG(hpcd, USB_OTG_GINTSTS_USBRST))
 457:Drivers/STM32F1xx_HAL_Driver/Src/stm32f1xx_hal_pcd.c ****     {
 458:Drivers/STM32F1xx_HAL_Driver/Src/stm32f1xx_hal_pcd.c ****       USBx_DEVICE->DCTL &= ~USB_OTG_DCTL_RWUSIG; 
 459:Drivers/STM32F1xx_HAL_Driver/Src/stm32f1xx_hal_pcd.c ****       USB_FlushTxFifo(hpcd->Instance ,  0x10U);
 460:Drivers/STM32F1xx_HAL_Driver/Src/stm32f1xx_hal_pcd.c ****       
 461:Drivers/STM32F1xx_HAL_Driver/Src/stm32f1xx_hal_pcd.c ****       for (index = 0U; index < hpcd->Init.dev_endpoints ; index++)
 462:Drivers/STM32F1xx_HAL_Driver/Src/stm32f1xx_hal_pcd.c ****       {
 463:Drivers/STM32F1xx_HAL_Driver/Src/stm32f1xx_hal_pcd.c ****         USBx_INEP(index)->DIEPINT = 0xFFU;
 464:Drivers/STM32F1xx_HAL_Driver/Src/stm32f1xx_hal_pcd.c ****         USBx_OUTEP(index)->DOEPINT = 0xFFU;
 465:Drivers/STM32F1xx_HAL_Driver/Src/stm32f1xx_hal_pcd.c ****       }
 466:Drivers/STM32F1xx_HAL_Driver/Src/stm32f1xx_hal_pcd.c ****       USBx_DEVICE->DAINT = 0xFFFFFFFFU;
 467:Drivers/STM32F1xx_HAL_Driver/Src/stm32f1xx_hal_pcd.c ****       USBx_DEVICE->DAINTMSK |= 0x10001U;
 468:Drivers/STM32F1xx_HAL_Driver/Src/stm32f1xx_hal_pcd.c ****       
 469:Drivers/STM32F1xx_HAL_Driver/Src/stm32f1xx_hal_pcd.c ****       USBx_DEVICE->DOEPMSK |= (USB_OTG_DOEPMSK_STUPM | USB_OTG_DOEPMSK_XFRCM | USB_OTG_DOEPMSK_EPDM
 470:Drivers/STM32F1xx_HAL_Driver/Src/stm32f1xx_hal_pcd.c ****       USBx_DEVICE->DIEPMSK |= (USB_OTG_DIEPMSK_TOM | USB_OTG_DIEPMSK_XFRCM | USB_OTG_DIEPMSK_EPDM);
 471:Drivers/STM32F1xx_HAL_Driver/Src/stm32f1xx_hal_pcd.c ****       
 472:Drivers/STM32F1xx_HAL_Driver/Src/stm32f1xx_hal_pcd.c ****       /* Set Default Address to 0 */
 473:Drivers/STM32F1xx_HAL_Driver/Src/stm32f1xx_hal_pcd.c ****       USBx_DEVICE->DCFG &= ~USB_OTG_DCFG_DAD;
 474:Drivers/STM32F1xx_HAL_Driver/Src/stm32f1xx_hal_pcd.c ****       
 475:Drivers/STM32F1xx_HAL_Driver/Src/stm32f1xx_hal_pcd.c ****       /* setup EP0 to receive SETUP packets */
 476:Drivers/STM32F1xx_HAL_Driver/Src/stm32f1xx_hal_pcd.c ****       USB_EP0_OutStart(hpcd->Instance, (uint8_t *)hpcd->Setup);
ARM GAS  C:\Users\Eemeli\AppData\Local\Temp\cccfLE7k.s 			page 19


 477:Drivers/STM32F1xx_HAL_Driver/Src/stm32f1xx_hal_pcd.c ****       
 478:Drivers/STM32F1xx_HAL_Driver/Src/stm32f1xx_hal_pcd.c ****       __HAL_PCD_CLEAR_FLAG(hpcd, USB_OTG_GINTSTS_USBRST);
 479:Drivers/STM32F1xx_HAL_Driver/Src/stm32f1xx_hal_pcd.c ****     }
 480:Drivers/STM32F1xx_HAL_Driver/Src/stm32f1xx_hal_pcd.c ****     
 481:Drivers/STM32F1xx_HAL_Driver/Src/stm32f1xx_hal_pcd.c ****     /* Handle Enumeration done Interrupt */
 482:Drivers/STM32F1xx_HAL_Driver/Src/stm32f1xx_hal_pcd.c ****     if(__HAL_PCD_GET_FLAG(hpcd, USB_OTG_GINTSTS_ENUMDNE))
 483:Drivers/STM32F1xx_HAL_Driver/Src/stm32f1xx_hal_pcd.c ****     {
 484:Drivers/STM32F1xx_HAL_Driver/Src/stm32f1xx_hal_pcd.c ****       USB_ActivateSetup(hpcd->Instance);
 485:Drivers/STM32F1xx_HAL_Driver/Src/stm32f1xx_hal_pcd.c ****       hpcd->Instance->GUSBCFG &= ~USB_OTG_GUSBCFG_TRDT;
 486:Drivers/STM32F1xx_HAL_Driver/Src/stm32f1xx_hal_pcd.c ****       
 487:Drivers/STM32F1xx_HAL_Driver/Src/stm32f1xx_hal_pcd.c ****       hpcd->Init.speed            = USB_OTG_SPEED_FULL;
 488:Drivers/STM32F1xx_HAL_Driver/Src/stm32f1xx_hal_pcd.c ****       hpcd->Init.ep0_mps          = USB_OTG_FS_MAX_PACKET_SIZE ;
 489:Drivers/STM32F1xx_HAL_Driver/Src/stm32f1xx_hal_pcd.c ****       hpcd->Instance->GUSBCFG |= (uint32_t)((USBD_FS_TRDT_VALUE << 10U) & USB_OTG_GUSBCFG_TRDT);
 490:Drivers/STM32F1xx_HAL_Driver/Src/stm32f1xx_hal_pcd.c ****       
 491:Drivers/STM32F1xx_HAL_Driver/Src/stm32f1xx_hal_pcd.c ****       HAL_PCD_ResetCallback(hpcd);
 492:Drivers/STM32F1xx_HAL_Driver/Src/stm32f1xx_hal_pcd.c ****       
 493:Drivers/STM32F1xx_HAL_Driver/Src/stm32f1xx_hal_pcd.c ****       __HAL_PCD_CLEAR_FLAG(hpcd, USB_OTG_GINTSTS_ENUMDNE);
 494:Drivers/STM32F1xx_HAL_Driver/Src/stm32f1xx_hal_pcd.c ****     }
 495:Drivers/STM32F1xx_HAL_Driver/Src/stm32f1xx_hal_pcd.c **** 
 496:Drivers/STM32F1xx_HAL_Driver/Src/stm32f1xx_hal_pcd.c ****     /* Handle RxQLevel Interrupt */
 497:Drivers/STM32F1xx_HAL_Driver/Src/stm32f1xx_hal_pcd.c ****     if(__HAL_PCD_GET_FLAG(hpcd, USB_OTG_GINTSTS_RXFLVL))
 498:Drivers/STM32F1xx_HAL_Driver/Src/stm32f1xx_hal_pcd.c ****     {
 499:Drivers/STM32F1xx_HAL_Driver/Src/stm32f1xx_hal_pcd.c ****       USB_MASK_INTERRUPT(hpcd->Instance, USB_OTG_GINTSTS_RXFLVL);
 500:Drivers/STM32F1xx_HAL_Driver/Src/stm32f1xx_hal_pcd.c ****       temp = USBx->GRXSTSP;
 501:Drivers/STM32F1xx_HAL_Driver/Src/stm32f1xx_hal_pcd.c ****       ep = &hpcd->OUT_ep[temp & USB_OTG_GRXSTSP_EPNUM];
 502:Drivers/STM32F1xx_HAL_Driver/Src/stm32f1xx_hal_pcd.c ****       
 503:Drivers/STM32F1xx_HAL_Driver/Src/stm32f1xx_hal_pcd.c ****       if(((temp & USB_OTG_GRXSTSP_PKTSTS) >> 17U) ==  STS_DATA_UPDT)
 504:Drivers/STM32F1xx_HAL_Driver/Src/stm32f1xx_hal_pcd.c ****       {
 505:Drivers/STM32F1xx_HAL_Driver/Src/stm32f1xx_hal_pcd.c ****         if((temp & USB_OTG_GRXSTSP_BCNT) != 0U)
 506:Drivers/STM32F1xx_HAL_Driver/Src/stm32f1xx_hal_pcd.c ****         {
 507:Drivers/STM32F1xx_HAL_Driver/Src/stm32f1xx_hal_pcd.c ****           USB_ReadPacket(USBx, ep->xfer_buff, (temp & USB_OTG_GRXSTSP_BCNT) >> 4U);
 508:Drivers/STM32F1xx_HAL_Driver/Src/stm32f1xx_hal_pcd.c ****           ep->xfer_buff += (temp & USB_OTG_GRXSTSP_BCNT) >> 4U;
 509:Drivers/STM32F1xx_HAL_Driver/Src/stm32f1xx_hal_pcd.c ****           ep->xfer_count += (temp & USB_OTG_GRXSTSP_BCNT) >> 4U;
 510:Drivers/STM32F1xx_HAL_Driver/Src/stm32f1xx_hal_pcd.c ****         }
 511:Drivers/STM32F1xx_HAL_Driver/Src/stm32f1xx_hal_pcd.c ****       }
 512:Drivers/STM32F1xx_HAL_Driver/Src/stm32f1xx_hal_pcd.c ****       else if (((temp & USB_OTG_GRXSTSP_PKTSTS) >> 17U) ==  STS_SETUP_UPDT)
 513:Drivers/STM32F1xx_HAL_Driver/Src/stm32f1xx_hal_pcd.c ****       {
 514:Drivers/STM32F1xx_HAL_Driver/Src/stm32f1xx_hal_pcd.c ****         USB_ReadPacket(USBx, (uint8_t *)hpcd->Setup, 8U);
 515:Drivers/STM32F1xx_HAL_Driver/Src/stm32f1xx_hal_pcd.c ****         ep->xfer_count += (temp & USB_OTG_GRXSTSP_BCNT) >> 4U;
 516:Drivers/STM32F1xx_HAL_Driver/Src/stm32f1xx_hal_pcd.c ****       }
 517:Drivers/STM32F1xx_HAL_Driver/Src/stm32f1xx_hal_pcd.c ****       USB_UNMASK_INTERRUPT(hpcd->Instance, USB_OTG_GINTSTS_RXFLVL);
 518:Drivers/STM32F1xx_HAL_Driver/Src/stm32f1xx_hal_pcd.c ****     }
 519:Drivers/STM32F1xx_HAL_Driver/Src/stm32f1xx_hal_pcd.c ****     
 520:Drivers/STM32F1xx_HAL_Driver/Src/stm32f1xx_hal_pcd.c ****     /* Handle SOF Interrupt */
 521:Drivers/STM32F1xx_HAL_Driver/Src/stm32f1xx_hal_pcd.c ****     if(__HAL_PCD_GET_FLAG(hpcd, USB_OTG_GINTSTS_SOF))
 522:Drivers/STM32F1xx_HAL_Driver/Src/stm32f1xx_hal_pcd.c ****     {
 523:Drivers/STM32F1xx_HAL_Driver/Src/stm32f1xx_hal_pcd.c ****       HAL_PCD_SOFCallback(hpcd);
 524:Drivers/STM32F1xx_HAL_Driver/Src/stm32f1xx_hal_pcd.c ****       __HAL_PCD_CLEAR_FLAG(hpcd, USB_OTG_GINTSTS_SOF);
 525:Drivers/STM32F1xx_HAL_Driver/Src/stm32f1xx_hal_pcd.c ****     }
 526:Drivers/STM32F1xx_HAL_Driver/Src/stm32f1xx_hal_pcd.c ****     
 527:Drivers/STM32F1xx_HAL_Driver/Src/stm32f1xx_hal_pcd.c ****     /* Handle Incomplete ISO IN Interrupt */
 528:Drivers/STM32F1xx_HAL_Driver/Src/stm32f1xx_hal_pcd.c ****     if(__HAL_PCD_GET_FLAG(hpcd, USB_OTG_GINTSTS_IISOIXFR))
 529:Drivers/STM32F1xx_HAL_Driver/Src/stm32f1xx_hal_pcd.c ****     {
 530:Drivers/STM32F1xx_HAL_Driver/Src/stm32f1xx_hal_pcd.c ****       HAL_PCD_ISOINIncompleteCallback(hpcd, epnum);
 531:Drivers/STM32F1xx_HAL_Driver/Src/stm32f1xx_hal_pcd.c ****       __HAL_PCD_CLEAR_FLAG(hpcd, USB_OTG_GINTSTS_IISOIXFR);
 532:Drivers/STM32F1xx_HAL_Driver/Src/stm32f1xx_hal_pcd.c ****     }
 533:Drivers/STM32F1xx_HAL_Driver/Src/stm32f1xx_hal_pcd.c ****     
ARM GAS  C:\Users\Eemeli\AppData\Local\Temp\cccfLE7k.s 			page 20


 534:Drivers/STM32F1xx_HAL_Driver/Src/stm32f1xx_hal_pcd.c ****     /* Handle Incomplete ISO OUT Interrupt */
 535:Drivers/STM32F1xx_HAL_Driver/Src/stm32f1xx_hal_pcd.c ****     if(__HAL_PCD_GET_FLAG(hpcd, USB_OTG_GINTSTS_PXFR_INCOMPISOOUT))
 536:Drivers/STM32F1xx_HAL_Driver/Src/stm32f1xx_hal_pcd.c ****     {
 537:Drivers/STM32F1xx_HAL_Driver/Src/stm32f1xx_hal_pcd.c ****       HAL_PCD_ISOOUTIncompleteCallback(hpcd, epnum);
 538:Drivers/STM32F1xx_HAL_Driver/Src/stm32f1xx_hal_pcd.c ****       __HAL_PCD_CLEAR_FLAG(hpcd, USB_OTG_GINTSTS_PXFR_INCOMPISOOUT);
 539:Drivers/STM32F1xx_HAL_Driver/Src/stm32f1xx_hal_pcd.c ****     }
 540:Drivers/STM32F1xx_HAL_Driver/Src/stm32f1xx_hal_pcd.c ****     
 541:Drivers/STM32F1xx_HAL_Driver/Src/stm32f1xx_hal_pcd.c ****     /* Handle Connection event Interrupt */
 542:Drivers/STM32F1xx_HAL_Driver/Src/stm32f1xx_hal_pcd.c ****     if(__HAL_PCD_GET_FLAG(hpcd, USB_OTG_GINTSTS_SRQINT))
 543:Drivers/STM32F1xx_HAL_Driver/Src/stm32f1xx_hal_pcd.c ****     {
 544:Drivers/STM32F1xx_HAL_Driver/Src/stm32f1xx_hal_pcd.c ****       HAL_PCD_ConnectCallback(hpcd);
 545:Drivers/STM32F1xx_HAL_Driver/Src/stm32f1xx_hal_pcd.c ****       __HAL_PCD_CLEAR_FLAG(hpcd, USB_OTG_GINTSTS_SRQINT);
 546:Drivers/STM32F1xx_HAL_Driver/Src/stm32f1xx_hal_pcd.c ****     }
 547:Drivers/STM32F1xx_HAL_Driver/Src/stm32f1xx_hal_pcd.c ****     
 548:Drivers/STM32F1xx_HAL_Driver/Src/stm32f1xx_hal_pcd.c ****     /* Handle Disconnection event Interrupt */
 549:Drivers/STM32F1xx_HAL_Driver/Src/stm32f1xx_hal_pcd.c ****     if(__HAL_PCD_GET_FLAG(hpcd, USB_OTG_GINTSTS_OTGINT))
 550:Drivers/STM32F1xx_HAL_Driver/Src/stm32f1xx_hal_pcd.c ****     {
 551:Drivers/STM32F1xx_HAL_Driver/Src/stm32f1xx_hal_pcd.c ****       temp = hpcd->Instance->GOTGINT;
 552:Drivers/STM32F1xx_HAL_Driver/Src/stm32f1xx_hal_pcd.c ****       
 553:Drivers/STM32F1xx_HAL_Driver/Src/stm32f1xx_hal_pcd.c ****       if((temp & USB_OTG_GOTGINT_SEDET) == USB_OTG_GOTGINT_SEDET)
 554:Drivers/STM32F1xx_HAL_Driver/Src/stm32f1xx_hal_pcd.c ****       {
 555:Drivers/STM32F1xx_HAL_Driver/Src/stm32f1xx_hal_pcd.c ****         HAL_PCD_DisconnectCallback(hpcd);
 556:Drivers/STM32F1xx_HAL_Driver/Src/stm32f1xx_hal_pcd.c ****       }
 557:Drivers/STM32F1xx_HAL_Driver/Src/stm32f1xx_hal_pcd.c ****       hpcd->Instance->GOTGINT |= temp;
 558:Drivers/STM32F1xx_HAL_Driver/Src/stm32f1xx_hal_pcd.c ****     }
 559:Drivers/STM32F1xx_HAL_Driver/Src/stm32f1xx_hal_pcd.c ****   }
 560:Drivers/STM32F1xx_HAL_Driver/Src/stm32f1xx_hal_pcd.c **** }
 561:Drivers/STM32F1xx_HAL_Driver/Src/stm32f1xx_hal_pcd.c **** #endif /* USB_OTG_FS */
 562:Drivers/STM32F1xx_HAL_Driver/Src/stm32f1xx_hal_pcd.c **** 
 563:Drivers/STM32F1xx_HAL_Driver/Src/stm32f1xx_hal_pcd.c **** #if defined (USB)
 564:Drivers/STM32F1xx_HAL_Driver/Src/stm32f1xx_hal_pcd.c **** /**
 565:Drivers/STM32F1xx_HAL_Driver/Src/stm32f1xx_hal_pcd.c ****   * @brief  This function handles PCD interrupt request.
 566:Drivers/STM32F1xx_HAL_Driver/Src/stm32f1xx_hal_pcd.c ****   * @param  hpcd: PCD handle
 567:Drivers/STM32F1xx_HAL_Driver/Src/stm32f1xx_hal_pcd.c ****   * @retval HAL status
 568:Drivers/STM32F1xx_HAL_Driver/Src/stm32f1xx_hal_pcd.c ****   */
 569:Drivers/STM32F1xx_HAL_Driver/Src/stm32f1xx_hal_pcd.c **** void HAL_PCD_IRQHandler(PCD_HandleTypeDef *hpcd)
 570:Drivers/STM32F1xx_HAL_Driver/Src/stm32f1xx_hal_pcd.c **** { 
 571:Drivers/STM32F1xx_HAL_Driver/Src/stm32f1xx_hal_pcd.c ****   if (__HAL_PCD_GET_FLAG (hpcd, USB_ISTR_CTR))
 572:Drivers/STM32F1xx_HAL_Driver/Src/stm32f1xx_hal_pcd.c ****   {
 573:Drivers/STM32F1xx_HAL_Driver/Src/stm32f1xx_hal_pcd.c ****     /* servicing of the endpoint correct transfer interrupt */
 574:Drivers/STM32F1xx_HAL_Driver/Src/stm32f1xx_hal_pcd.c ****     /* clear of the CTR flag into the sub */
 575:Drivers/STM32F1xx_HAL_Driver/Src/stm32f1xx_hal_pcd.c ****     PCD_EP_ISR_Handler(hpcd);
 576:Drivers/STM32F1xx_HAL_Driver/Src/stm32f1xx_hal_pcd.c ****   }
 577:Drivers/STM32F1xx_HAL_Driver/Src/stm32f1xx_hal_pcd.c **** 
 578:Drivers/STM32F1xx_HAL_Driver/Src/stm32f1xx_hal_pcd.c ****   if (__HAL_PCD_GET_FLAG (hpcd, USB_ISTR_RESET))
 579:Drivers/STM32F1xx_HAL_Driver/Src/stm32f1xx_hal_pcd.c ****   {
 580:Drivers/STM32F1xx_HAL_Driver/Src/stm32f1xx_hal_pcd.c ****     __HAL_PCD_CLEAR_FLAG(hpcd, USB_ISTR_RESET);
 581:Drivers/STM32F1xx_HAL_Driver/Src/stm32f1xx_hal_pcd.c ****     HAL_PCD_ResetCallback(hpcd);
 582:Drivers/STM32F1xx_HAL_Driver/Src/stm32f1xx_hal_pcd.c ****     HAL_PCD_SetAddress(hpcd, 0U);
 583:Drivers/STM32F1xx_HAL_Driver/Src/stm32f1xx_hal_pcd.c ****   }
 584:Drivers/STM32F1xx_HAL_Driver/Src/stm32f1xx_hal_pcd.c **** 
 585:Drivers/STM32F1xx_HAL_Driver/Src/stm32f1xx_hal_pcd.c ****   if (__HAL_PCD_GET_FLAG (hpcd, USB_ISTR_PMAOVR))
 586:Drivers/STM32F1xx_HAL_Driver/Src/stm32f1xx_hal_pcd.c ****   {
 587:Drivers/STM32F1xx_HAL_Driver/Src/stm32f1xx_hal_pcd.c ****     __HAL_PCD_CLEAR_FLAG(hpcd, USB_ISTR_PMAOVR);    
 588:Drivers/STM32F1xx_HAL_Driver/Src/stm32f1xx_hal_pcd.c ****   }
 589:Drivers/STM32F1xx_HAL_Driver/Src/stm32f1xx_hal_pcd.c ****   if (__HAL_PCD_GET_FLAG (hpcd, USB_ISTR_ERR))
 590:Drivers/STM32F1xx_HAL_Driver/Src/stm32f1xx_hal_pcd.c ****   {
ARM GAS  C:\Users\Eemeli\AppData\Local\Temp\cccfLE7k.s 			page 21


 591:Drivers/STM32F1xx_HAL_Driver/Src/stm32f1xx_hal_pcd.c ****     __HAL_PCD_CLEAR_FLAG(hpcd, USB_ISTR_ERR); 
 592:Drivers/STM32F1xx_HAL_Driver/Src/stm32f1xx_hal_pcd.c ****   }
 593:Drivers/STM32F1xx_HAL_Driver/Src/stm32f1xx_hal_pcd.c **** 
 594:Drivers/STM32F1xx_HAL_Driver/Src/stm32f1xx_hal_pcd.c ****   if (__HAL_PCD_GET_FLAG (hpcd, USB_ISTR_WKUP))
 595:Drivers/STM32F1xx_HAL_Driver/Src/stm32f1xx_hal_pcd.c ****   {
 596:Drivers/STM32F1xx_HAL_Driver/Src/stm32f1xx_hal_pcd.c ****     hpcd->Instance->CNTR &= ~(USB_CNTR_LP_MODE);
 597:Drivers/STM32F1xx_HAL_Driver/Src/stm32f1xx_hal_pcd.c ****     hpcd->Instance->CNTR &= ~(USB_CNTR_FSUSP);
 598:Drivers/STM32F1xx_HAL_Driver/Src/stm32f1xx_hal_pcd.c ****     
 599:Drivers/STM32F1xx_HAL_Driver/Src/stm32f1xx_hal_pcd.c ****     HAL_PCD_ResumeCallback(hpcd);
 600:Drivers/STM32F1xx_HAL_Driver/Src/stm32f1xx_hal_pcd.c **** 
 601:Drivers/STM32F1xx_HAL_Driver/Src/stm32f1xx_hal_pcd.c ****     __HAL_PCD_CLEAR_FLAG(hpcd, USB_ISTR_WKUP);     
 602:Drivers/STM32F1xx_HAL_Driver/Src/stm32f1xx_hal_pcd.c ****   }
 603:Drivers/STM32F1xx_HAL_Driver/Src/stm32f1xx_hal_pcd.c **** 
 604:Drivers/STM32F1xx_HAL_Driver/Src/stm32f1xx_hal_pcd.c ****   if (__HAL_PCD_GET_FLAG (hpcd, USB_ISTR_SUSP))
 605:Drivers/STM32F1xx_HAL_Driver/Src/stm32f1xx_hal_pcd.c ****   { 
 606:Drivers/STM32F1xx_HAL_Driver/Src/stm32f1xx_hal_pcd.c ****     /* Force low-power mode in the macrocell */
 607:Drivers/STM32F1xx_HAL_Driver/Src/stm32f1xx_hal_pcd.c ****     hpcd->Instance->CNTR |= USB_CNTR_FSUSP;
 608:Drivers/STM32F1xx_HAL_Driver/Src/stm32f1xx_hal_pcd.c ****     
 609:Drivers/STM32F1xx_HAL_Driver/Src/stm32f1xx_hal_pcd.c ****     /* clear of the ISTR bit must be done after setting of CNTR_FSUSP */
 610:Drivers/STM32F1xx_HAL_Driver/Src/stm32f1xx_hal_pcd.c ****     __HAL_PCD_CLEAR_FLAG(hpcd, USB_ISTR_SUSP);  
 611:Drivers/STM32F1xx_HAL_Driver/Src/stm32f1xx_hal_pcd.c **** 
 612:Drivers/STM32F1xx_HAL_Driver/Src/stm32f1xx_hal_pcd.c ****     hpcd->Instance->CNTR |= USB_CNTR_LP_MODE;
 613:Drivers/STM32F1xx_HAL_Driver/Src/stm32f1xx_hal_pcd.c ****     if (__HAL_PCD_GET_FLAG (hpcd, USB_ISTR_WKUP) == 0U)
 614:Drivers/STM32F1xx_HAL_Driver/Src/stm32f1xx_hal_pcd.c ****     {
 615:Drivers/STM32F1xx_HAL_Driver/Src/stm32f1xx_hal_pcd.c ****       HAL_PCD_SuspendCallback(hpcd);
 616:Drivers/STM32F1xx_HAL_Driver/Src/stm32f1xx_hal_pcd.c ****     }
 617:Drivers/STM32F1xx_HAL_Driver/Src/stm32f1xx_hal_pcd.c ****   }
 618:Drivers/STM32F1xx_HAL_Driver/Src/stm32f1xx_hal_pcd.c **** 
 619:Drivers/STM32F1xx_HAL_Driver/Src/stm32f1xx_hal_pcd.c ****   if (__HAL_PCD_GET_FLAG (hpcd, USB_ISTR_SOF))
 620:Drivers/STM32F1xx_HAL_Driver/Src/stm32f1xx_hal_pcd.c ****   {
 621:Drivers/STM32F1xx_HAL_Driver/Src/stm32f1xx_hal_pcd.c ****     __HAL_PCD_CLEAR_FLAG(hpcd, USB_ISTR_SOF); 
 622:Drivers/STM32F1xx_HAL_Driver/Src/stm32f1xx_hal_pcd.c ****     HAL_PCD_SOFCallback(hpcd);
 623:Drivers/STM32F1xx_HAL_Driver/Src/stm32f1xx_hal_pcd.c ****   }
 624:Drivers/STM32F1xx_HAL_Driver/Src/stm32f1xx_hal_pcd.c **** 
 625:Drivers/STM32F1xx_HAL_Driver/Src/stm32f1xx_hal_pcd.c ****   if (__HAL_PCD_GET_FLAG (hpcd, USB_ISTR_ESOF))
 626:Drivers/STM32F1xx_HAL_Driver/Src/stm32f1xx_hal_pcd.c ****   {
 627:Drivers/STM32F1xx_HAL_Driver/Src/stm32f1xx_hal_pcd.c ****     /* clear ESOF flag in ISTR */
 628:Drivers/STM32F1xx_HAL_Driver/Src/stm32f1xx_hal_pcd.c ****     __HAL_PCD_CLEAR_FLAG(hpcd, USB_ISTR_ESOF); 
 629:Drivers/STM32F1xx_HAL_Driver/Src/stm32f1xx_hal_pcd.c ****   }
 630:Drivers/STM32F1xx_HAL_Driver/Src/stm32f1xx_hal_pcd.c **** }
 631:Drivers/STM32F1xx_HAL_Driver/Src/stm32f1xx_hal_pcd.c **** #endif /* USB */
 632:Drivers/STM32F1xx_HAL_Driver/Src/stm32f1xx_hal_pcd.c **** 
 633:Drivers/STM32F1xx_HAL_Driver/Src/stm32f1xx_hal_pcd.c **** /**
 634:Drivers/STM32F1xx_HAL_Driver/Src/stm32f1xx_hal_pcd.c ****   * @brief  Data out stage callbacks
 635:Drivers/STM32F1xx_HAL_Driver/Src/stm32f1xx_hal_pcd.c ****   * @param  hpcd: PCD handle
 636:Drivers/STM32F1xx_HAL_Driver/Src/stm32f1xx_hal_pcd.c ****   * @param  epnum: endpoint number
 637:Drivers/STM32F1xx_HAL_Driver/Src/stm32f1xx_hal_pcd.c ****   * @retval None
 638:Drivers/STM32F1xx_HAL_Driver/Src/stm32f1xx_hal_pcd.c ****   */
 639:Drivers/STM32F1xx_HAL_Driver/Src/stm32f1xx_hal_pcd.c ****  __weak void HAL_PCD_DataOutStageCallback(PCD_HandleTypeDef *hpcd, uint8_t epnum)
 640:Drivers/STM32F1xx_HAL_Driver/Src/stm32f1xx_hal_pcd.c **** {
 472              		.loc 1 640 1 is_stmt 1 view -0
 473              		.cfi_startproc
 474              		@ args = 0, pretend = 0, frame = 0
 475              		@ frame_needed = 0, uses_anonymous_args = 0
 476              		@ link register save eliminated.
 641:Drivers/STM32F1xx_HAL_Driver/Src/stm32f1xx_hal_pcd.c ****   /* Prevent unused argument(s) compilation warning */
 642:Drivers/STM32F1xx_HAL_Driver/Src/stm32f1xx_hal_pcd.c ****   UNUSED(hpcd);
ARM GAS  C:\Users\Eemeli\AppData\Local\Temp\cccfLE7k.s 			page 22


 477              		.loc 1 642 3 view .LVU123
 643:Drivers/STM32F1xx_HAL_Driver/Src/stm32f1xx_hal_pcd.c ****   UNUSED(epnum);
 478              		.loc 1 643 3 view .LVU124
 644:Drivers/STM32F1xx_HAL_Driver/Src/stm32f1xx_hal_pcd.c ****   /* NOTE : This function should not be modified, when the callback is needed,
 645:Drivers/STM32F1xx_HAL_Driver/Src/stm32f1xx_hal_pcd.c ****             the HAL_PCD_DataOutStageCallback could be implemented in the user file
 646:Drivers/STM32F1xx_HAL_Driver/Src/stm32f1xx_hal_pcd.c ****    */
 647:Drivers/STM32F1xx_HAL_Driver/Src/stm32f1xx_hal_pcd.c **** }
 479              		.loc 1 647 1 is_stmt 0 view .LVU125
 480 0000 7047     		bx	lr
 481              		.cfi_endproc
 482              	.LFE73:
 484 0002 00BF     		.section	.text.HAL_PCD_DataInStageCallback,"ax",%progbits
 485              		.align	1
 486              		.p2align 2,,3
 487              		.weak	HAL_PCD_DataInStageCallback
 488              		.syntax unified
 489              		.thumb
 490              		.thumb_func
 491              		.fpu softvfp
 493              	HAL_PCD_DataInStageCallback:
 494              	.LFB116:
 495              		.cfi_startproc
 496              		@ args = 0, pretend = 0, frame = 0
 497              		@ frame_needed = 0, uses_anonymous_args = 0
 498              		@ link register save eliminated.
 499 0000 7047     		bx	lr
 500              		.cfi_endproc
 501              	.LFE116:
 503 0002 00BF     		.section	.text.HAL_PCD_SetupStageCallback,"ax",%progbits
 504              		.align	1
 505              		.p2align 2,,3
 506              		.weak	HAL_PCD_SetupStageCallback
 507              		.syntax unified
 508              		.thumb
 509              		.thumb_func
 510              		.fpu softvfp
 512              	HAL_PCD_SetupStageCallback:
 513              	.LFB102:
 514              		.cfi_startproc
 515              		@ args = 0, pretend = 0, frame = 0
 516              		@ frame_needed = 0, uses_anonymous_args = 0
 517              		@ link register save eliminated.
 518 0000 7047     		bx	lr
 519              		.cfi_endproc
 520              	.LFE102:
 522 0002 00BF     		.section	.text.HAL_PCD_SOFCallback,"ax",%progbits
 523              		.align	1
 524              		.p2align 2,,3
 525              		.weak	HAL_PCD_SOFCallback
 526              		.syntax unified
 527              		.thumb
 528              		.thumb_func
 529              		.fpu softvfp
 531              	HAL_PCD_SOFCallback:
 532              	.LFB104:
 533              		.cfi_startproc
 534              		@ args = 0, pretend = 0, frame = 0
ARM GAS  C:\Users\Eemeli\AppData\Local\Temp\cccfLE7k.s 			page 23


 535              		@ frame_needed = 0, uses_anonymous_args = 0
 536              		@ link register save eliminated.
 537 0000 7047     		bx	lr
 538              		.cfi_endproc
 539              	.LFE104:
 541 0002 00BF     		.section	.text.HAL_PCD_ResetCallback,"ax",%progbits
 542              		.align	1
 543              		.p2align 2,,3
 544              		.weak	HAL_PCD_ResetCallback
 545              		.syntax unified
 546              		.thumb
 547              		.thumb_func
 548              		.fpu softvfp
 550              	HAL_PCD_ResetCallback:
 551              	.LFB106:
 552              		.cfi_startproc
 553              		@ args = 0, pretend = 0, frame = 0
 554              		@ frame_needed = 0, uses_anonymous_args = 0
 555              		@ link register save eliminated.
 556 0000 7047     		bx	lr
 557              		.cfi_endproc
 558              	.LFE106:
 560 0002 00BF     		.section	.text.HAL_PCD_SuspendCallback,"ax",%progbits
 561              		.align	1
 562              		.p2align 2,,3
 563              		.weak	HAL_PCD_SuspendCallback
 564              		.syntax unified
 565              		.thumb
 566              		.thumb_func
 567              		.fpu softvfp
 569              	HAL_PCD_SuspendCallback:
 570              	.LFB108:
 571              		.cfi_startproc
 572              		@ args = 0, pretend = 0, frame = 0
 573              		@ frame_needed = 0, uses_anonymous_args = 0
 574              		@ link register save eliminated.
 575 0000 7047     		bx	lr
 576              		.cfi_endproc
 577              	.LFE108:
 579 0002 00BF     		.section	.text.HAL_PCD_ResumeCallback,"ax",%progbits
 580              		.align	1
 581              		.p2align 2,,3
 582              		.weak	HAL_PCD_ResumeCallback
 583              		.syntax unified
 584              		.thumb
 585              		.thumb_func
 586              		.fpu softvfp
 588              	HAL_PCD_ResumeCallback:
 589              	.LFB110:
 590              		.cfi_startproc
 591              		@ args = 0, pretend = 0, frame = 0
 592              		@ frame_needed = 0, uses_anonymous_args = 0
 593              		@ link register save eliminated.
 594 0000 7047     		bx	lr
 595              		.cfi_endproc
 596              	.LFE110:
 598 0002 00BF     		.section	.text.HAL_PCD_ISOOUTIncompleteCallback,"ax",%progbits
ARM GAS  C:\Users\Eemeli\AppData\Local\Temp\cccfLE7k.s 			page 24


 599              		.align	1
 600              		.p2align 2,,3
 601              		.weak	HAL_PCD_ISOOUTIncompleteCallback
 602              		.syntax unified
 603              		.thumb
 604              		.thumb_func
 605              		.fpu softvfp
 607              	HAL_PCD_ISOOUTIncompleteCallback:
 608              	.LFB118:
 609              		.cfi_startproc
 610              		@ args = 0, pretend = 0, frame = 0
 611              		@ frame_needed = 0, uses_anonymous_args = 0
 612              		@ link register save eliminated.
 613 0000 7047     		bx	lr
 614              		.cfi_endproc
 615              	.LFE118:
 617 0002 00BF     		.section	.text.HAL_PCD_ISOINIncompleteCallback,"ax",%progbits
 618              		.align	1
 619              		.p2align 2,,3
 620              		.weak	HAL_PCD_ISOINIncompleteCallback
 621              		.syntax unified
 622              		.thumb
 623              		.thumb_func
 624              		.fpu softvfp
 626              	HAL_PCD_ISOINIncompleteCallback:
 627              	.LFB120:
 628              		.cfi_startproc
 629              		@ args = 0, pretend = 0, frame = 0
 630              		@ frame_needed = 0, uses_anonymous_args = 0
 631              		@ link register save eliminated.
 632 0000 7047     		bx	lr
 633              		.cfi_endproc
 634              	.LFE120:
 636 0002 00BF     		.section	.text.HAL_PCD_ConnectCallback,"ax",%progbits
 637              		.align	1
 638              		.p2align 2,,3
 639              		.weak	HAL_PCD_ConnectCallback
 640              		.syntax unified
 641              		.thumb
 642              		.thumb_func
 643              		.fpu softvfp
 645              	HAL_PCD_ConnectCallback:
 646              	.LFB112:
 647              		.cfi_startproc
 648              		@ args = 0, pretend = 0, frame = 0
 649              		@ frame_needed = 0, uses_anonymous_args = 0
 650              		@ link register save eliminated.
 651 0000 7047     		bx	lr
 652              		.cfi_endproc
 653              	.LFE112:
 655 0002 00BF     		.section	.text.HAL_PCD_DisconnectCallback,"ax",%progbits
 656              		.align	1
 657              		.p2align 2,,3
 658              		.weak	HAL_PCD_DisconnectCallback
 659              		.syntax unified
 660              		.thumb
 661              		.thumb_func
ARM GAS  C:\Users\Eemeli\AppData\Local\Temp\cccfLE7k.s 			page 25


 662              		.fpu softvfp
 664              	HAL_PCD_DisconnectCallback:
 665              	.LFB114:
 666              		.cfi_startproc
 667              		@ args = 0, pretend = 0, frame = 0
 668              		@ frame_needed = 0, uses_anonymous_args = 0
 669              		@ link register save eliminated.
 670 0000 7047     		bx	lr
 671              		.cfi_endproc
 672              	.LFE114:
 674 0002 00BF     		.section	.text.HAL_PCD_DevConnect,"ax",%progbits
 675              		.align	1
 676              		.p2align 2,,3
 677              		.global	HAL_PCD_DevConnect
 678              		.syntax unified
 679              		.thumb
 680              		.thumb_func
 681              		.fpu softvfp
 683              	HAL_PCD_DevConnect:
 684              	.LVL38:
 685              	.LFB84:
 648:Drivers/STM32F1xx_HAL_Driver/Src/stm32f1xx_hal_pcd.c **** 
 649:Drivers/STM32F1xx_HAL_Driver/Src/stm32f1xx_hal_pcd.c **** /**
 650:Drivers/STM32F1xx_HAL_Driver/Src/stm32f1xx_hal_pcd.c ****   * @brief  Data IN stage callbacks
 651:Drivers/STM32F1xx_HAL_Driver/Src/stm32f1xx_hal_pcd.c ****   * @param  hpcd: PCD handle
 652:Drivers/STM32F1xx_HAL_Driver/Src/stm32f1xx_hal_pcd.c ****   * @param  epnum: endpoint number
 653:Drivers/STM32F1xx_HAL_Driver/Src/stm32f1xx_hal_pcd.c ****   * @retval None
 654:Drivers/STM32F1xx_HAL_Driver/Src/stm32f1xx_hal_pcd.c ****   */
 655:Drivers/STM32F1xx_HAL_Driver/Src/stm32f1xx_hal_pcd.c ****  __weak void HAL_PCD_DataInStageCallback(PCD_HandleTypeDef *hpcd, uint8_t epnum)
 656:Drivers/STM32F1xx_HAL_Driver/Src/stm32f1xx_hal_pcd.c **** {
 657:Drivers/STM32F1xx_HAL_Driver/Src/stm32f1xx_hal_pcd.c ****   /* Prevent unused argument(s) compilation warning */
 658:Drivers/STM32F1xx_HAL_Driver/Src/stm32f1xx_hal_pcd.c ****   UNUSED(hpcd);
 659:Drivers/STM32F1xx_HAL_Driver/Src/stm32f1xx_hal_pcd.c ****   UNUSED(epnum);
 660:Drivers/STM32F1xx_HAL_Driver/Src/stm32f1xx_hal_pcd.c ****   /* NOTE : This function should not be modified, when the callback is needed,
 661:Drivers/STM32F1xx_HAL_Driver/Src/stm32f1xx_hal_pcd.c ****             the HAL_PCD_DataInStageCallback could be implemented in the user file
 662:Drivers/STM32F1xx_HAL_Driver/Src/stm32f1xx_hal_pcd.c ****    */
 663:Drivers/STM32F1xx_HAL_Driver/Src/stm32f1xx_hal_pcd.c **** }
 664:Drivers/STM32F1xx_HAL_Driver/Src/stm32f1xx_hal_pcd.c **** /**
 665:Drivers/STM32F1xx_HAL_Driver/Src/stm32f1xx_hal_pcd.c ****   * @brief  Setup stage callback
 666:Drivers/STM32F1xx_HAL_Driver/Src/stm32f1xx_hal_pcd.c ****   * @param  hpcd: PCD handle
 667:Drivers/STM32F1xx_HAL_Driver/Src/stm32f1xx_hal_pcd.c ****   * @retval None
 668:Drivers/STM32F1xx_HAL_Driver/Src/stm32f1xx_hal_pcd.c ****   */
 669:Drivers/STM32F1xx_HAL_Driver/Src/stm32f1xx_hal_pcd.c ****  __weak void HAL_PCD_SetupStageCallback(PCD_HandleTypeDef *hpcd)
 670:Drivers/STM32F1xx_HAL_Driver/Src/stm32f1xx_hal_pcd.c **** {
 671:Drivers/STM32F1xx_HAL_Driver/Src/stm32f1xx_hal_pcd.c ****   /* Prevent unused argument(s) compilation warning */
 672:Drivers/STM32F1xx_HAL_Driver/Src/stm32f1xx_hal_pcd.c ****   UNUSED(hpcd);
 673:Drivers/STM32F1xx_HAL_Driver/Src/stm32f1xx_hal_pcd.c ****   /* NOTE : This function should not be modified, when the callback is needed,
 674:Drivers/STM32F1xx_HAL_Driver/Src/stm32f1xx_hal_pcd.c ****             the HAL_PCD_SetupStageCallback could be implemented in the user file
 675:Drivers/STM32F1xx_HAL_Driver/Src/stm32f1xx_hal_pcd.c ****    */
 676:Drivers/STM32F1xx_HAL_Driver/Src/stm32f1xx_hal_pcd.c **** }
 677:Drivers/STM32F1xx_HAL_Driver/Src/stm32f1xx_hal_pcd.c **** 
 678:Drivers/STM32F1xx_HAL_Driver/Src/stm32f1xx_hal_pcd.c **** /**
 679:Drivers/STM32F1xx_HAL_Driver/Src/stm32f1xx_hal_pcd.c ****   * @brief  USB Start Of Frame callbacks
 680:Drivers/STM32F1xx_HAL_Driver/Src/stm32f1xx_hal_pcd.c ****   * @param  hpcd: PCD handle
 681:Drivers/STM32F1xx_HAL_Driver/Src/stm32f1xx_hal_pcd.c ****   * @retval None
 682:Drivers/STM32F1xx_HAL_Driver/Src/stm32f1xx_hal_pcd.c ****   */
 683:Drivers/STM32F1xx_HAL_Driver/Src/stm32f1xx_hal_pcd.c ****  __weak void HAL_PCD_SOFCallback(PCD_HandleTypeDef *hpcd)
ARM GAS  C:\Users\Eemeli\AppData\Local\Temp\cccfLE7k.s 			page 26


 684:Drivers/STM32F1xx_HAL_Driver/Src/stm32f1xx_hal_pcd.c **** {
 685:Drivers/STM32F1xx_HAL_Driver/Src/stm32f1xx_hal_pcd.c ****   /* Prevent unused argument(s) compilation warning */
 686:Drivers/STM32F1xx_HAL_Driver/Src/stm32f1xx_hal_pcd.c ****   UNUSED(hpcd);
 687:Drivers/STM32F1xx_HAL_Driver/Src/stm32f1xx_hal_pcd.c ****   /* NOTE : This function should not be modified, when the callback is needed,
 688:Drivers/STM32F1xx_HAL_Driver/Src/stm32f1xx_hal_pcd.c ****             the HAL_PCD_SOFCallback could be implemented in the user file
 689:Drivers/STM32F1xx_HAL_Driver/Src/stm32f1xx_hal_pcd.c ****    */
 690:Drivers/STM32F1xx_HAL_Driver/Src/stm32f1xx_hal_pcd.c **** }
 691:Drivers/STM32F1xx_HAL_Driver/Src/stm32f1xx_hal_pcd.c **** 
 692:Drivers/STM32F1xx_HAL_Driver/Src/stm32f1xx_hal_pcd.c **** /**
 693:Drivers/STM32F1xx_HAL_Driver/Src/stm32f1xx_hal_pcd.c ****   * @brief  USB Reset callbacks
 694:Drivers/STM32F1xx_HAL_Driver/Src/stm32f1xx_hal_pcd.c ****   * @param  hpcd: PCD handle
 695:Drivers/STM32F1xx_HAL_Driver/Src/stm32f1xx_hal_pcd.c ****   * @retval None
 696:Drivers/STM32F1xx_HAL_Driver/Src/stm32f1xx_hal_pcd.c ****   */
 697:Drivers/STM32F1xx_HAL_Driver/Src/stm32f1xx_hal_pcd.c ****  __weak void HAL_PCD_ResetCallback(PCD_HandleTypeDef *hpcd)
 698:Drivers/STM32F1xx_HAL_Driver/Src/stm32f1xx_hal_pcd.c **** {
 699:Drivers/STM32F1xx_HAL_Driver/Src/stm32f1xx_hal_pcd.c ****   /* Prevent unused argument(s) compilation warning */
 700:Drivers/STM32F1xx_HAL_Driver/Src/stm32f1xx_hal_pcd.c ****   UNUSED(hpcd);
 701:Drivers/STM32F1xx_HAL_Driver/Src/stm32f1xx_hal_pcd.c ****   /* NOTE : This function should not be modified, when the callback is needed,
 702:Drivers/STM32F1xx_HAL_Driver/Src/stm32f1xx_hal_pcd.c ****             the HAL_PCD_ResetCallback could be implemented in the user file
 703:Drivers/STM32F1xx_HAL_Driver/Src/stm32f1xx_hal_pcd.c ****    */
 704:Drivers/STM32F1xx_HAL_Driver/Src/stm32f1xx_hal_pcd.c **** }
 705:Drivers/STM32F1xx_HAL_Driver/Src/stm32f1xx_hal_pcd.c **** 
 706:Drivers/STM32F1xx_HAL_Driver/Src/stm32f1xx_hal_pcd.c **** /**
 707:Drivers/STM32F1xx_HAL_Driver/Src/stm32f1xx_hal_pcd.c ****   * @brief  Suspend event callbacks
 708:Drivers/STM32F1xx_HAL_Driver/Src/stm32f1xx_hal_pcd.c ****   * @param  hpcd: PCD handle
 709:Drivers/STM32F1xx_HAL_Driver/Src/stm32f1xx_hal_pcd.c ****   * @retval None
 710:Drivers/STM32F1xx_HAL_Driver/Src/stm32f1xx_hal_pcd.c ****   */
 711:Drivers/STM32F1xx_HAL_Driver/Src/stm32f1xx_hal_pcd.c ****  __weak void HAL_PCD_SuspendCallback(PCD_HandleTypeDef *hpcd)
 712:Drivers/STM32F1xx_HAL_Driver/Src/stm32f1xx_hal_pcd.c **** {
 713:Drivers/STM32F1xx_HAL_Driver/Src/stm32f1xx_hal_pcd.c ****   /* Prevent unused argument(s) compilation warning */
 714:Drivers/STM32F1xx_HAL_Driver/Src/stm32f1xx_hal_pcd.c ****   UNUSED(hpcd);
 715:Drivers/STM32F1xx_HAL_Driver/Src/stm32f1xx_hal_pcd.c ****   /* NOTE : This function should not be modified, when the callback is needed,
 716:Drivers/STM32F1xx_HAL_Driver/Src/stm32f1xx_hal_pcd.c ****             the HAL_PCD_SuspendCallback could be implemented in the user file
 717:Drivers/STM32F1xx_HAL_Driver/Src/stm32f1xx_hal_pcd.c ****    */
 718:Drivers/STM32F1xx_HAL_Driver/Src/stm32f1xx_hal_pcd.c **** }
 719:Drivers/STM32F1xx_HAL_Driver/Src/stm32f1xx_hal_pcd.c **** 
 720:Drivers/STM32F1xx_HAL_Driver/Src/stm32f1xx_hal_pcd.c **** /**
 721:Drivers/STM32F1xx_HAL_Driver/Src/stm32f1xx_hal_pcd.c ****   * @brief  Resume event callbacks
 722:Drivers/STM32F1xx_HAL_Driver/Src/stm32f1xx_hal_pcd.c ****   * @param  hpcd: PCD handle
 723:Drivers/STM32F1xx_HAL_Driver/Src/stm32f1xx_hal_pcd.c ****   * @retval None
 724:Drivers/STM32F1xx_HAL_Driver/Src/stm32f1xx_hal_pcd.c ****   */
 725:Drivers/STM32F1xx_HAL_Driver/Src/stm32f1xx_hal_pcd.c ****  __weak void HAL_PCD_ResumeCallback(PCD_HandleTypeDef *hpcd)
 726:Drivers/STM32F1xx_HAL_Driver/Src/stm32f1xx_hal_pcd.c **** {
 727:Drivers/STM32F1xx_HAL_Driver/Src/stm32f1xx_hal_pcd.c ****   /* Prevent unused argument(s) compilation warning */
 728:Drivers/STM32F1xx_HAL_Driver/Src/stm32f1xx_hal_pcd.c ****   UNUSED(hpcd);
 729:Drivers/STM32F1xx_HAL_Driver/Src/stm32f1xx_hal_pcd.c ****   /* NOTE : This function should not be modified, when the callback is needed,
 730:Drivers/STM32F1xx_HAL_Driver/Src/stm32f1xx_hal_pcd.c ****             the HAL_PCD_ResumeCallback could be implemented in the user file
 731:Drivers/STM32F1xx_HAL_Driver/Src/stm32f1xx_hal_pcd.c ****    */
 732:Drivers/STM32F1xx_HAL_Driver/Src/stm32f1xx_hal_pcd.c **** }
 733:Drivers/STM32F1xx_HAL_Driver/Src/stm32f1xx_hal_pcd.c **** 
 734:Drivers/STM32F1xx_HAL_Driver/Src/stm32f1xx_hal_pcd.c **** /**
 735:Drivers/STM32F1xx_HAL_Driver/Src/stm32f1xx_hal_pcd.c ****   * @brief  Incomplete ISO OUT callbacks
 736:Drivers/STM32F1xx_HAL_Driver/Src/stm32f1xx_hal_pcd.c ****   * @param  hpcd: PCD handle
 737:Drivers/STM32F1xx_HAL_Driver/Src/stm32f1xx_hal_pcd.c ****   * @param  epnum: endpoint number
 738:Drivers/STM32F1xx_HAL_Driver/Src/stm32f1xx_hal_pcd.c ****   * @retval None
 739:Drivers/STM32F1xx_HAL_Driver/Src/stm32f1xx_hal_pcd.c ****   */
 740:Drivers/STM32F1xx_HAL_Driver/Src/stm32f1xx_hal_pcd.c ****  __weak void HAL_PCD_ISOOUTIncompleteCallback(PCD_HandleTypeDef *hpcd, uint8_t epnum)
ARM GAS  C:\Users\Eemeli\AppData\Local\Temp\cccfLE7k.s 			page 27


 741:Drivers/STM32F1xx_HAL_Driver/Src/stm32f1xx_hal_pcd.c **** {
 742:Drivers/STM32F1xx_HAL_Driver/Src/stm32f1xx_hal_pcd.c ****   /* Prevent unused argument(s) compilation warning */
 743:Drivers/STM32F1xx_HAL_Driver/Src/stm32f1xx_hal_pcd.c ****   UNUSED(hpcd);
 744:Drivers/STM32F1xx_HAL_Driver/Src/stm32f1xx_hal_pcd.c ****   UNUSED(epnum);
 745:Drivers/STM32F1xx_HAL_Driver/Src/stm32f1xx_hal_pcd.c ****   /* NOTE : This function should not be modified, when the callback is needed,
 746:Drivers/STM32F1xx_HAL_Driver/Src/stm32f1xx_hal_pcd.c ****             the HAL_PCD_ISOOUTIncompleteCallback could be implemented in the user file
 747:Drivers/STM32F1xx_HAL_Driver/Src/stm32f1xx_hal_pcd.c ****    */
 748:Drivers/STM32F1xx_HAL_Driver/Src/stm32f1xx_hal_pcd.c **** }
 749:Drivers/STM32F1xx_HAL_Driver/Src/stm32f1xx_hal_pcd.c **** 
 750:Drivers/STM32F1xx_HAL_Driver/Src/stm32f1xx_hal_pcd.c **** /**
 751:Drivers/STM32F1xx_HAL_Driver/Src/stm32f1xx_hal_pcd.c ****   * @brief  Incomplete ISO IN  callbacks
 752:Drivers/STM32F1xx_HAL_Driver/Src/stm32f1xx_hal_pcd.c ****   * @param  hpcd: PCD handle
 753:Drivers/STM32F1xx_HAL_Driver/Src/stm32f1xx_hal_pcd.c ****   * @param  epnum: endpoint number
 754:Drivers/STM32F1xx_HAL_Driver/Src/stm32f1xx_hal_pcd.c ****   * @retval None
 755:Drivers/STM32F1xx_HAL_Driver/Src/stm32f1xx_hal_pcd.c ****   */
 756:Drivers/STM32F1xx_HAL_Driver/Src/stm32f1xx_hal_pcd.c ****  __weak void HAL_PCD_ISOINIncompleteCallback(PCD_HandleTypeDef *hpcd, uint8_t epnum)
 757:Drivers/STM32F1xx_HAL_Driver/Src/stm32f1xx_hal_pcd.c **** {
 758:Drivers/STM32F1xx_HAL_Driver/Src/stm32f1xx_hal_pcd.c ****   /* Prevent unused argument(s) compilation warning */
 759:Drivers/STM32F1xx_HAL_Driver/Src/stm32f1xx_hal_pcd.c ****   UNUSED(hpcd);
 760:Drivers/STM32F1xx_HAL_Driver/Src/stm32f1xx_hal_pcd.c ****   UNUSED(epnum);
 761:Drivers/STM32F1xx_HAL_Driver/Src/stm32f1xx_hal_pcd.c ****   /* NOTE : This function should not be modified, when the callback is needed,
 762:Drivers/STM32F1xx_HAL_Driver/Src/stm32f1xx_hal_pcd.c ****             the HAL_PCD_ISOINIncompleteCallback could be implemented in the user file
 763:Drivers/STM32F1xx_HAL_Driver/Src/stm32f1xx_hal_pcd.c ****    */
 764:Drivers/STM32F1xx_HAL_Driver/Src/stm32f1xx_hal_pcd.c **** }
 765:Drivers/STM32F1xx_HAL_Driver/Src/stm32f1xx_hal_pcd.c **** 
 766:Drivers/STM32F1xx_HAL_Driver/Src/stm32f1xx_hal_pcd.c **** /**
 767:Drivers/STM32F1xx_HAL_Driver/Src/stm32f1xx_hal_pcd.c ****   * @brief  Connection event callbacks
 768:Drivers/STM32F1xx_HAL_Driver/Src/stm32f1xx_hal_pcd.c ****   * @param  hpcd: PCD handle
 769:Drivers/STM32F1xx_HAL_Driver/Src/stm32f1xx_hal_pcd.c ****   * @retval None
 770:Drivers/STM32F1xx_HAL_Driver/Src/stm32f1xx_hal_pcd.c ****   */
 771:Drivers/STM32F1xx_HAL_Driver/Src/stm32f1xx_hal_pcd.c ****  __weak void HAL_PCD_ConnectCallback(PCD_HandleTypeDef *hpcd)
 772:Drivers/STM32F1xx_HAL_Driver/Src/stm32f1xx_hal_pcd.c **** {
 773:Drivers/STM32F1xx_HAL_Driver/Src/stm32f1xx_hal_pcd.c ****   /* Prevent unused argument(s) compilation warning */
 774:Drivers/STM32F1xx_HAL_Driver/Src/stm32f1xx_hal_pcd.c ****   UNUSED(hpcd);
 775:Drivers/STM32F1xx_HAL_Driver/Src/stm32f1xx_hal_pcd.c ****   /* NOTE : This function should not be modified, when the callback is needed,
 776:Drivers/STM32F1xx_HAL_Driver/Src/stm32f1xx_hal_pcd.c ****             the HAL_PCD_ConnectCallback could be implemented in the user file
 777:Drivers/STM32F1xx_HAL_Driver/Src/stm32f1xx_hal_pcd.c ****    */
 778:Drivers/STM32F1xx_HAL_Driver/Src/stm32f1xx_hal_pcd.c **** }
 779:Drivers/STM32F1xx_HAL_Driver/Src/stm32f1xx_hal_pcd.c **** 
 780:Drivers/STM32F1xx_HAL_Driver/Src/stm32f1xx_hal_pcd.c **** /**
 781:Drivers/STM32F1xx_HAL_Driver/Src/stm32f1xx_hal_pcd.c ****   * @brief  Disconnection event callbacks
 782:Drivers/STM32F1xx_HAL_Driver/Src/stm32f1xx_hal_pcd.c ****   * @param  hpcd: PCD handle
 783:Drivers/STM32F1xx_HAL_Driver/Src/stm32f1xx_hal_pcd.c ****   * @retval None
 784:Drivers/STM32F1xx_HAL_Driver/Src/stm32f1xx_hal_pcd.c ****   */
 785:Drivers/STM32F1xx_HAL_Driver/Src/stm32f1xx_hal_pcd.c ****  __weak void HAL_PCD_DisconnectCallback(PCD_HandleTypeDef *hpcd)
 786:Drivers/STM32F1xx_HAL_Driver/Src/stm32f1xx_hal_pcd.c **** {
 787:Drivers/STM32F1xx_HAL_Driver/Src/stm32f1xx_hal_pcd.c ****   /* Prevent unused argument(s) compilation warning */
 788:Drivers/STM32F1xx_HAL_Driver/Src/stm32f1xx_hal_pcd.c ****   UNUSED(hpcd);
 789:Drivers/STM32F1xx_HAL_Driver/Src/stm32f1xx_hal_pcd.c ****   /* NOTE : This function should not be modified, when the callback is needed,
 790:Drivers/STM32F1xx_HAL_Driver/Src/stm32f1xx_hal_pcd.c ****             the HAL_PCD_DisconnectCallback could be implemented in the user file
 791:Drivers/STM32F1xx_HAL_Driver/Src/stm32f1xx_hal_pcd.c ****    */
 792:Drivers/STM32F1xx_HAL_Driver/Src/stm32f1xx_hal_pcd.c **** }
 793:Drivers/STM32F1xx_HAL_Driver/Src/stm32f1xx_hal_pcd.c **** 
 794:Drivers/STM32F1xx_HAL_Driver/Src/stm32f1xx_hal_pcd.c **** /**
 795:Drivers/STM32F1xx_HAL_Driver/Src/stm32f1xx_hal_pcd.c ****   * @}
 796:Drivers/STM32F1xx_HAL_Driver/Src/stm32f1xx_hal_pcd.c ****   */
 797:Drivers/STM32F1xx_HAL_Driver/Src/stm32f1xx_hal_pcd.c **** 
ARM GAS  C:\Users\Eemeli\AppData\Local\Temp\cccfLE7k.s 			page 28


 798:Drivers/STM32F1xx_HAL_Driver/Src/stm32f1xx_hal_pcd.c **** /** @defgroup PCD_Exported_Functions_Group3 Peripheral Control functions
 799:Drivers/STM32F1xx_HAL_Driver/Src/stm32f1xx_hal_pcd.c ****  *  @brief   management functions
 800:Drivers/STM32F1xx_HAL_Driver/Src/stm32f1xx_hal_pcd.c ****  *
 801:Drivers/STM32F1xx_HAL_Driver/Src/stm32f1xx_hal_pcd.c **** @verbatim
 802:Drivers/STM32F1xx_HAL_Driver/Src/stm32f1xx_hal_pcd.c ****  ===============================================================================
 803:Drivers/STM32F1xx_HAL_Driver/Src/stm32f1xx_hal_pcd.c ****                       ##### Peripheral Control functions #####
 804:Drivers/STM32F1xx_HAL_Driver/Src/stm32f1xx_hal_pcd.c ****  ===============================================================================  
 805:Drivers/STM32F1xx_HAL_Driver/Src/stm32f1xx_hal_pcd.c ****     [..]
 806:Drivers/STM32F1xx_HAL_Driver/Src/stm32f1xx_hal_pcd.c ****     This subsection provides a set of functions allowing to control the PCD data 
 807:Drivers/STM32F1xx_HAL_Driver/Src/stm32f1xx_hal_pcd.c ****     transfers.
 808:Drivers/STM32F1xx_HAL_Driver/Src/stm32f1xx_hal_pcd.c **** 
 809:Drivers/STM32F1xx_HAL_Driver/Src/stm32f1xx_hal_pcd.c **** @endverbatim
 810:Drivers/STM32F1xx_HAL_Driver/Src/stm32f1xx_hal_pcd.c ****   * @{
 811:Drivers/STM32F1xx_HAL_Driver/Src/stm32f1xx_hal_pcd.c ****   */
 812:Drivers/STM32F1xx_HAL_Driver/Src/stm32f1xx_hal_pcd.c **** 
 813:Drivers/STM32F1xx_HAL_Driver/Src/stm32f1xx_hal_pcd.c **** /**
 814:Drivers/STM32F1xx_HAL_Driver/Src/stm32f1xx_hal_pcd.c ****   * @brief  Connect the USB device
 815:Drivers/STM32F1xx_HAL_Driver/Src/stm32f1xx_hal_pcd.c ****   * @param  hpcd: PCD handle
 816:Drivers/STM32F1xx_HAL_Driver/Src/stm32f1xx_hal_pcd.c ****   * @retval HAL status
 817:Drivers/STM32F1xx_HAL_Driver/Src/stm32f1xx_hal_pcd.c ****   */
 818:Drivers/STM32F1xx_HAL_Driver/Src/stm32f1xx_hal_pcd.c **** HAL_StatusTypeDef HAL_PCD_DevConnect(PCD_HandleTypeDef *hpcd)
 819:Drivers/STM32F1xx_HAL_Driver/Src/stm32f1xx_hal_pcd.c **** {
 686              		.loc 1 819 1 is_stmt 1 view -0
 687              		.cfi_startproc
 688              		@ args = 0, pretend = 0, frame = 0
 689              		@ frame_needed = 0, uses_anonymous_args = 0
 820:Drivers/STM32F1xx_HAL_Driver/Src/stm32f1xx_hal_pcd.c ****   __HAL_LOCK(hpcd);
 690              		.loc 1 820 3 view .LVU127
 691              		.loc 1 820 3 view .LVU128
 692 0000 90F82834 		ldrb	r3, [r0, #1064]	@ zero_extendqisi2
 693 0004 012B     		cmp	r3, #1
 694 0006 0DD0     		beq	.L51
 695              		.loc 1 820 3 discriminator 2 view .LVU129
 696 0008 0121     		movs	r1, #1
 819:Drivers/STM32F1xx_HAL_Driver/Src/stm32f1xx_hal_pcd.c ****   __HAL_LOCK(hpcd);
 697              		.loc 1 819 1 is_stmt 0 discriminator 2 view .LVU130
 698 000a 10B5     		push	{r4, lr}
 699              	.LCFI11:
 700              		.cfi_def_cfa_offset 8
 701              		.cfi_offset 4, -8
 702              		.cfi_offset 14, -4
 703 000c 0446     		mov	r4, r0
 704              		.loc 1 820 3 discriminator 2 view .LVU131
 705 000e 80F82814 		strb	r1, [r0, #1064]
 821:Drivers/STM32F1xx_HAL_Driver/Src/stm32f1xx_hal_pcd.c ****   HAL_PCDEx_SetConnectionState (hpcd, 1);
 706              		.loc 1 821 3 is_stmt 1 discriminator 2 view .LVU132
 707 0012 FFF7FEFF 		bl	HAL_PCDEx_SetConnectionState
 708              	.LVL39:
 822:Drivers/STM32F1xx_HAL_Driver/Src/stm32f1xx_hal_pcd.c ****   USB_DevConnect(hpcd->Instance);
 709              		.loc 1 822 3 discriminator 2 view .LVU133
 710 0016 2068     		ldr	r0, [r4]
 711 0018 FFF7FEFF 		bl	USB_DevConnect
 712              	.LVL40:
 823:Drivers/STM32F1xx_HAL_Driver/Src/stm32f1xx_hal_pcd.c ****   __HAL_UNLOCK(hpcd);
 713              		.loc 1 823 3 discriminator 2 view .LVU134
 714              		.loc 1 823 3 discriminator 2 view .LVU135
 715 001c 0020     		movs	r0, #0
ARM GAS  C:\Users\Eemeli\AppData\Local\Temp\cccfLE7k.s 			page 29


 716 001e 84F82804 		strb	r0, [r4, #1064]
 824:Drivers/STM32F1xx_HAL_Driver/Src/stm32f1xx_hal_pcd.c ****   return HAL_OK;
 717              		.loc 1 824 3 discriminator 2 view .LVU136
 825:Drivers/STM32F1xx_HAL_Driver/Src/stm32f1xx_hal_pcd.c **** }
 718              		.loc 1 825 1 is_stmt 0 discriminator 2 view .LVU137
 719 0022 10BD     		pop	{r4, pc}
 720              	.LVL41:
 721              	.L51:
 722              	.LCFI12:
 723              		.cfi_def_cfa_offset 0
 724              		.cfi_restore 4
 725              		.cfi_restore 14
 820:Drivers/STM32F1xx_HAL_Driver/Src/stm32f1xx_hal_pcd.c ****   HAL_PCDEx_SetConnectionState (hpcd, 1);
 726              		.loc 1 820 3 view .LVU138
 727 0024 0220     		movs	r0, #2
 728              	.LVL42:
 729              		.loc 1 825 1 view .LVU139
 730 0026 7047     		bx	lr
 731              		.cfi_endproc
 732              	.LFE84:
 734              		.section	.text.HAL_PCD_DevDisconnect,"ax",%progbits
 735              		.align	1
 736              		.p2align 2,,3
 737              		.global	HAL_PCD_DevDisconnect
 738              		.syntax unified
 739              		.thumb
 740              		.thumb_func
 741              		.fpu softvfp
 743              	HAL_PCD_DevDisconnect:
 744              	.LVL43:
 745              	.LFB85:
 826:Drivers/STM32F1xx_HAL_Driver/Src/stm32f1xx_hal_pcd.c **** 
 827:Drivers/STM32F1xx_HAL_Driver/Src/stm32f1xx_hal_pcd.c **** /**
 828:Drivers/STM32F1xx_HAL_Driver/Src/stm32f1xx_hal_pcd.c ****   * @brief  Disconnect the USB device
 829:Drivers/STM32F1xx_HAL_Driver/Src/stm32f1xx_hal_pcd.c ****   * @param  hpcd: PCD handle
 830:Drivers/STM32F1xx_HAL_Driver/Src/stm32f1xx_hal_pcd.c ****   * @retval HAL status
 831:Drivers/STM32F1xx_HAL_Driver/Src/stm32f1xx_hal_pcd.c ****   */
 832:Drivers/STM32F1xx_HAL_Driver/Src/stm32f1xx_hal_pcd.c **** HAL_StatusTypeDef HAL_PCD_DevDisconnect(PCD_HandleTypeDef *hpcd)
 833:Drivers/STM32F1xx_HAL_Driver/Src/stm32f1xx_hal_pcd.c **** {
 746              		.loc 1 833 1 is_stmt 1 view -0
 747              		.cfi_startproc
 748              		@ args = 0, pretend = 0, frame = 0
 749              		@ frame_needed = 0, uses_anonymous_args = 0
 834:Drivers/STM32F1xx_HAL_Driver/Src/stm32f1xx_hal_pcd.c ****   __HAL_LOCK(hpcd);
 750              		.loc 1 834 3 view .LVU141
 751              		.loc 1 834 3 view .LVU142
 752 0000 90F82834 		ldrb	r3, [r0, #1064]	@ zero_extendqisi2
 753 0004 012B     		cmp	r3, #1
 754 0006 0ED0     		beq	.L58
 755              		.loc 1 834 3 discriminator 2 view .LVU143
 756 0008 0123     		movs	r3, #1
 833:Drivers/STM32F1xx_HAL_Driver/Src/stm32f1xx_hal_pcd.c ****   __HAL_LOCK(hpcd);
 757              		.loc 1 833 1 is_stmt 0 discriminator 2 view .LVU144
 758 000a 10B5     		push	{r4, lr}
 759              	.LCFI13:
 760              		.cfi_def_cfa_offset 8
 761              		.cfi_offset 4, -8
ARM GAS  C:\Users\Eemeli\AppData\Local\Temp\cccfLE7k.s 			page 30


 762              		.cfi_offset 14, -4
 763 000c 0446     		mov	r4, r0
 764              		.loc 1 834 3 discriminator 2 view .LVU145
 765 000e 80F82834 		strb	r3, [r0, #1064]
 835:Drivers/STM32F1xx_HAL_Driver/Src/stm32f1xx_hal_pcd.c ****   HAL_PCDEx_SetConnectionState (hpcd, 0U);
 766              		.loc 1 835 3 is_stmt 1 discriminator 2 view .LVU146
 767 0012 0021     		movs	r1, #0
 768 0014 FFF7FEFF 		bl	HAL_PCDEx_SetConnectionState
 769              	.LVL44:
 836:Drivers/STM32F1xx_HAL_Driver/Src/stm32f1xx_hal_pcd.c ****   USB_DevDisconnect(hpcd->Instance);
 770              		.loc 1 836 3 discriminator 2 view .LVU147
 771 0018 2068     		ldr	r0, [r4]
 772 001a FFF7FEFF 		bl	USB_DevDisconnect
 773              	.LVL45:
 837:Drivers/STM32F1xx_HAL_Driver/Src/stm32f1xx_hal_pcd.c ****   __HAL_UNLOCK(hpcd);
 774              		.loc 1 837 3 discriminator 2 view .LVU148
 775              		.loc 1 837 3 discriminator 2 view .LVU149
 776 001e 0020     		movs	r0, #0
 777 0020 84F82804 		strb	r0, [r4, #1064]
 838:Drivers/STM32F1xx_HAL_Driver/Src/stm32f1xx_hal_pcd.c ****   return HAL_OK;
 778              		.loc 1 838 3 discriminator 2 view .LVU150
 839:Drivers/STM32F1xx_HAL_Driver/Src/stm32f1xx_hal_pcd.c **** }
 779              		.loc 1 839 1 is_stmt 0 discriminator 2 view .LVU151
 780 0024 10BD     		pop	{r4, pc}
 781              	.LVL46:
 782              	.L58:
 783              	.LCFI14:
 784              		.cfi_def_cfa_offset 0
 785              		.cfi_restore 4
 786              		.cfi_restore 14
 834:Drivers/STM32F1xx_HAL_Driver/Src/stm32f1xx_hal_pcd.c ****   HAL_PCDEx_SetConnectionState (hpcd, 0U);
 787              		.loc 1 834 3 view .LVU152
 788 0026 0220     		movs	r0, #2
 789              	.LVL47:
 790              		.loc 1 839 1 view .LVU153
 791 0028 7047     		bx	lr
 792              		.cfi_endproc
 793              	.LFE85:
 795 002a 00BF     		.section	.text.HAL_PCD_SetAddress,"ax",%progbits
 796              		.align	1
 797              		.p2align 2,,3
 798              		.global	HAL_PCD_SetAddress
 799              		.syntax unified
 800              		.thumb
 801              		.thumb_func
 802              		.fpu softvfp
 804              	HAL_PCD_SetAddress:
 805              	.LVL48:
 806              	.LFB86:
 840:Drivers/STM32F1xx_HAL_Driver/Src/stm32f1xx_hal_pcd.c **** 
 841:Drivers/STM32F1xx_HAL_Driver/Src/stm32f1xx_hal_pcd.c **** /**
 842:Drivers/STM32F1xx_HAL_Driver/Src/stm32f1xx_hal_pcd.c ****   * @brief  Set the USB Device address
 843:Drivers/STM32F1xx_HAL_Driver/Src/stm32f1xx_hal_pcd.c ****   * @param  hpcd: PCD handle
 844:Drivers/STM32F1xx_HAL_Driver/Src/stm32f1xx_hal_pcd.c ****   * @param  address: new device address
 845:Drivers/STM32F1xx_HAL_Driver/Src/stm32f1xx_hal_pcd.c ****   * @retval HAL status
 846:Drivers/STM32F1xx_HAL_Driver/Src/stm32f1xx_hal_pcd.c ****   */
 847:Drivers/STM32F1xx_HAL_Driver/Src/stm32f1xx_hal_pcd.c **** HAL_StatusTypeDef HAL_PCD_SetAddress(PCD_HandleTypeDef *hpcd, uint8_t address)
ARM GAS  C:\Users\Eemeli\AppData\Local\Temp\cccfLE7k.s 			page 31


 848:Drivers/STM32F1xx_HAL_Driver/Src/stm32f1xx_hal_pcd.c **** {
 807              		.loc 1 848 1 is_stmt 1 view -0
 808              		.cfi_startproc
 809              		@ args = 0, pretend = 0, frame = 0
 810              		@ frame_needed = 0, uses_anonymous_args = 0
 849:Drivers/STM32F1xx_HAL_Driver/Src/stm32f1xx_hal_pcd.c ****   __HAL_LOCK(hpcd);
 811              		.loc 1 849 3 view .LVU155
 812              		.loc 1 849 3 view .LVU156
 813 0000 90F82824 		ldrb	r2, [r0, #1064]	@ zero_extendqisi2
 814 0004 012A     		cmp	r2, #1
 815 0006 0DD0     		beq	.L65
 816              		.loc 1 849 3 discriminator 2 view .LVU157
 848:Drivers/STM32F1xx_HAL_Driver/Src/stm32f1xx_hal_pcd.c ****   __HAL_LOCK(hpcd);
 817              		.loc 1 848 1 is_stmt 0 discriminator 2 view .LVU158
 818 0008 10B5     		push	{r4, lr}
 819              	.LCFI15:
 820              		.cfi_def_cfa_offset 8
 821              		.cfi_offset 4, -8
 822              		.cfi_offset 14, -4
 823 000a 0446     		mov	r4, r0
 824              		.loc 1 849 3 discriminator 2 view .LVU159
 825 000c 0122     		movs	r2, #1
 850:Drivers/STM32F1xx_HAL_Driver/Src/stm32f1xx_hal_pcd.c ****   hpcd->USB_Address = address;
 826              		.loc 1 850 21 discriminator 2 view .LVU160
 827 000e 84F82410 		strb	r1, [r4, #36]
 849:Drivers/STM32F1xx_HAL_Driver/Src/stm32f1xx_hal_pcd.c ****   __HAL_LOCK(hpcd);
 828              		.loc 1 849 3 discriminator 2 view .LVU161
 829 0012 80F82824 		strb	r2, [r0, #1064]
 830              		.loc 1 850 3 is_stmt 1 discriminator 2 view .LVU162
 851:Drivers/STM32F1xx_HAL_Driver/Src/stm32f1xx_hal_pcd.c ****   USB_SetDevAddress(hpcd->Instance, address);
 831              		.loc 1 851 3 discriminator 2 view .LVU163
 832 0016 0068     		ldr	r0, [r0]
 833              	.LVL49:
 834              		.loc 1 851 3 is_stmt 0 discriminator 2 view .LVU164
 835 0018 FFF7FEFF 		bl	USB_SetDevAddress
 836              	.LVL50:
 852:Drivers/STM32F1xx_HAL_Driver/Src/stm32f1xx_hal_pcd.c ****   __HAL_UNLOCK(hpcd);
 837              		.loc 1 852 3 is_stmt 1 discriminator 2 view .LVU165
 838              		.loc 1 852 3 discriminator 2 view .LVU166
 839 001c 0020     		movs	r0, #0
 840 001e 84F82804 		strb	r0, [r4, #1064]
 853:Drivers/STM32F1xx_HAL_Driver/Src/stm32f1xx_hal_pcd.c ****   return HAL_OK;
 841              		.loc 1 853 3 discriminator 2 view .LVU167
 854:Drivers/STM32F1xx_HAL_Driver/Src/stm32f1xx_hal_pcd.c **** }
 842              		.loc 1 854 1 is_stmt 0 discriminator 2 view .LVU168
 843 0022 10BD     		pop	{r4, pc}
 844              	.LVL51:
 845              	.L65:
 846              	.LCFI16:
 847              		.cfi_def_cfa_offset 0
 848              		.cfi_restore 4
 849              		.cfi_restore 14
 849:Drivers/STM32F1xx_HAL_Driver/Src/stm32f1xx_hal_pcd.c ****   hpcd->USB_Address = address;
 850              		.loc 1 849 3 view .LVU169
 851 0024 0220     		movs	r0, #2
 852              	.LVL52:
 853              		.loc 1 854 1 view .LVU170
ARM GAS  C:\Users\Eemeli\AppData\Local\Temp\cccfLE7k.s 			page 32


 854 0026 7047     		bx	lr
 855              		.cfi_endproc
 856              	.LFE86:
 858              		.section	.text.HAL_PCD_EP_Open,"ax",%progbits
 859              		.align	1
 860              		.p2align 2,,3
 861              		.global	HAL_PCD_EP_Open
 862              		.syntax unified
 863              		.thumb
 864              		.thumb_func
 865              		.fpu softvfp
 867              	HAL_PCD_EP_Open:
 868              	.LVL53:
 869              	.LFB87:
 855:Drivers/STM32F1xx_HAL_Driver/Src/stm32f1xx_hal_pcd.c **** /**
 856:Drivers/STM32F1xx_HAL_Driver/Src/stm32f1xx_hal_pcd.c ****   * @brief  Open and configure an endpoint
 857:Drivers/STM32F1xx_HAL_Driver/Src/stm32f1xx_hal_pcd.c ****   * @param  hpcd: PCD handle
 858:Drivers/STM32F1xx_HAL_Driver/Src/stm32f1xx_hal_pcd.c ****   * @param  ep_addr: endpoint address
 859:Drivers/STM32F1xx_HAL_Driver/Src/stm32f1xx_hal_pcd.c ****   * @param  ep_mps: endpoint max packet size
 860:Drivers/STM32F1xx_HAL_Driver/Src/stm32f1xx_hal_pcd.c ****   * @param  ep_type: endpoint type   
 861:Drivers/STM32F1xx_HAL_Driver/Src/stm32f1xx_hal_pcd.c ****   * @retval HAL status
 862:Drivers/STM32F1xx_HAL_Driver/Src/stm32f1xx_hal_pcd.c ****   */
 863:Drivers/STM32F1xx_HAL_Driver/Src/stm32f1xx_hal_pcd.c **** HAL_StatusTypeDef HAL_PCD_EP_Open(PCD_HandleTypeDef *hpcd, uint8_t ep_addr, uint16_t ep_mps, uint8_
 864:Drivers/STM32F1xx_HAL_Driver/Src/stm32f1xx_hal_pcd.c **** {
 870              		.loc 1 864 1 is_stmt 1 view -0
 871              		.cfi_startproc
 872              		@ args = 0, pretend = 0, frame = 0
 873              		@ frame_needed = 0, uses_anonymous_args = 0
 865:Drivers/STM32F1xx_HAL_Driver/Src/stm32f1xx_hal_pcd.c ****   HAL_StatusTypeDef  ret = HAL_OK;
 874              		.loc 1 865 3 view .LVU172
 866:Drivers/STM32F1xx_HAL_Driver/Src/stm32f1xx_hal_pcd.c ****   PCD_EPTypeDef *ep = NULL;
 875              		.loc 1 866 3 view .LVU173
 867:Drivers/STM32F1xx_HAL_Driver/Src/stm32f1xx_hal_pcd.c ****   
 868:Drivers/STM32F1xx_HAL_Driver/Src/stm32f1xx_hal_pcd.c ****   if ((ep_addr & 0x80U) == 0x80U)
 876              		.loc 1 868 3 view .LVU174
 869:Drivers/STM32F1xx_HAL_Driver/Src/stm32f1xx_hal_pcd.c ****   {
 870:Drivers/STM32F1xx_HAL_Driver/Src/stm32f1xx_hal_pcd.c ****     ep = &hpcd->IN_ep[ep_addr & 0x7FU];
 877              		.loc 1 870 5 view .LVU175
 864:Drivers/STM32F1xx_HAL_Driver/Src/stm32f1xx_hal_pcd.c ****   HAL_StatusTypeDef  ret = HAL_OK;
 878              		.loc 1 864 1 is_stmt 0 view .LVU176
 879 0000 38B5     		push	{r3, r4, r5, lr}
 880              	.LCFI17:
 881              		.cfi_def_cfa_offset 16
 882              		.cfi_offset 3, -16
 883              		.cfi_offset 4, -12
 884              		.cfi_offset 5, -8
 885              		.cfi_offset 14, -4
 868:Drivers/STM32F1xx_HAL_Driver/Src/stm32f1xx_hal_pcd.c ****   {
 886              		.loc 1 868 25 view .LVU177
 887 0002 4CB2     		sxtb	r4, r1
 868:Drivers/STM32F1xx_HAL_Driver/Src/stm32f1xx_hal_pcd.c ****   {
 888              		.loc 1 868 6 view .LVU178
 889 0004 002C     		cmp	r4, #0
 890 0006 01F07F05 		and	r5, r1, #127
 891              		.loc 1 870 8 view .LVU179
 892 000a B5BF     		itete	lt
 893 000c 00EB4511 		addlt	r1, r0, r5, lsl #5
ARM GAS  C:\Users\Eemeli\AppData\Local\Temp\cccfLE7k.s 			page 33


 894              	.LVL54:
 871:Drivers/STM32F1xx_HAL_Driver/Src/stm32f1xx_hal_pcd.c ****   }
 872:Drivers/STM32F1xx_HAL_Driver/Src/stm32f1xx_hal_pcd.c ****   else
 873:Drivers/STM32F1xx_HAL_Driver/Src/stm32f1xx_hal_pcd.c ****   {
 874:Drivers/STM32F1xx_HAL_Driver/Src/stm32f1xx_hal_pcd.c ****     ep = &hpcd->OUT_ep[ep_addr & 0x7FU];
 895              		.loc 1 874 8 view .LVU180
 896 0010 00EB4111 		addge	r1, r0, r1, lsl #5
 870:Drivers/STM32F1xx_HAL_Driver/Src/stm32f1xx_hal_pcd.c ****   }
 897              		.loc 1 870 8 view .LVU181
 898 0014 2831     		addlt	r1, r1, #40
 899              	.LVL55:
 900              		.loc 1 874 5 is_stmt 1 view .LVU182
 901              		.loc 1 874 8 is_stmt 0 view .LVU183
 902 0016 01F50A71 		addge	r1, r1, #552
 903              	.LVL56:
 875:Drivers/STM32F1xx_HAL_Driver/Src/stm32f1xx_hal_pcd.c ****   }
 876:Drivers/STM32F1xx_HAL_Driver/Src/stm32f1xx_hal_pcd.c ****   ep->num   = ep_addr & 0x7FU;
 904              		.loc 1 876 3 is_stmt 1 view .LVU184
 877:Drivers/STM32F1xx_HAL_Driver/Src/stm32f1xx_hal_pcd.c ****   
 878:Drivers/STM32F1xx_HAL_Driver/Src/stm32f1xx_hal_pcd.c ****   ep->is_in = (0x80U & ep_addr) != 0U;
 905              		.loc 1 878 33 is_stmt 0 view .LVU185
 906 001a E40F     		lsrs	r4, r4, #31
 907              	.LVL57:
 908              		.loc 1 878 13 view .LVU186
 909 001c 4C70     		strb	r4, [r1, #1]
 876:Drivers/STM32F1xx_HAL_Driver/Src/stm32f1xx_hal_pcd.c ****   
 910              		.loc 1 876 13 view .LVU187
 911 001e 0D70     		strb	r5, [r1]
 912              		.loc 1 878 3 is_stmt 1 view .LVU188
 879:Drivers/STM32F1xx_HAL_Driver/Src/stm32f1xx_hal_pcd.c ****   ep->maxpacket = ep_mps;
 913              		.loc 1 879 3 view .LVU189
 880:Drivers/STM32F1xx_HAL_Driver/Src/stm32f1xx_hal_pcd.c ****   ep->type = ep_type;
 914              		.loc 1 880 12 is_stmt 0 view .LVU190
 915 0020 CB70     		strb	r3, [r1, #3]
 881:Drivers/STM32F1xx_HAL_Driver/Src/stm32f1xx_hal_pcd.c ****     
 882:Drivers/STM32F1xx_HAL_Driver/Src/stm32f1xx_hal_pcd.c ****   __HAL_LOCK(hpcd);
 916              		.loc 1 882 3 view .LVU191
 917 0022 90F82834 		ldrb	r3, [r0, #1064]	@ zero_extendqisi2
 918              	.LVL58:
 879:Drivers/STM32F1xx_HAL_Driver/Src/stm32f1xx_hal_pcd.c ****   ep->type = ep_type;
 919              		.loc 1 879 17 view .LVU192
 920 0026 0A61     		str	r2, [r1, #16]
 880:Drivers/STM32F1xx_HAL_Driver/Src/stm32f1xx_hal_pcd.c ****   ep->type = ep_type;
 921              		.loc 1 880 3 is_stmt 1 view .LVU193
 922              		.loc 1 882 3 view .LVU194
 923              		.loc 1 882 3 view .LVU195
 924 0028 012B     		cmp	r3, #1
 925 002a 0AD0     		beq	.L74
 926              		.loc 1 882 3 discriminator 2 view .LVU196
 927 002c 0123     		movs	r3, #1
 928 002e 0446     		mov	r4, r0
 929 0030 80F82834 		strb	r3, [r0, #1064]
 930              	.LVL59:
 883:Drivers/STM32F1xx_HAL_Driver/Src/stm32f1xx_hal_pcd.c ****   USB_ActivateEndpoint(hpcd->Instance , ep);
 931              		.loc 1 883 3 discriminator 2 view .LVU197
 932 0034 0068     		ldr	r0, [r0]
 933              	.LVL60:
ARM GAS  C:\Users\Eemeli\AppData\Local\Temp\cccfLE7k.s 			page 34


 934              		.loc 1 883 3 is_stmt 0 discriminator 2 view .LVU198
 935 0036 FFF7FEFF 		bl	USB_ActivateEndpoint
 936              	.LVL61:
 884:Drivers/STM32F1xx_HAL_Driver/Src/stm32f1xx_hal_pcd.c ****   __HAL_UNLOCK(hpcd);
 937              		.loc 1 884 3 is_stmt 1 discriminator 2 view .LVU199
 938              		.loc 1 884 3 discriminator 2 view .LVU200
 939 003a 0020     		movs	r0, #0
 940 003c 84F82804 		strb	r0, [r4, #1064]
 885:Drivers/STM32F1xx_HAL_Driver/Src/stm32f1xx_hal_pcd.c ****   return ret;
 941              		.loc 1 885 3 discriminator 2 view .LVU201
 886:Drivers/STM32F1xx_HAL_Driver/Src/stm32f1xx_hal_pcd.c **** }
 942              		.loc 1 886 1 is_stmt 0 discriminator 2 view .LVU202
 943 0040 38BD     		pop	{r3, r4, r5, pc}
 944              	.LVL62:
 945              	.L74:
 882:Drivers/STM32F1xx_HAL_Driver/Src/stm32f1xx_hal_pcd.c ****   USB_ActivateEndpoint(hpcd->Instance , ep);
 946              		.loc 1 882 3 view .LVU203
 947 0042 0220     		movs	r0, #2
 948              	.LVL63:
 949              		.loc 1 886 1 view .LVU204
 950 0044 38BD     		pop	{r3, r4, r5, pc}
 951              		.cfi_endproc
 952              	.LFE87:
 954 0046 00BF     		.section	.text.HAL_PCD_EP_Close,"ax",%progbits
 955              		.align	1
 956              		.p2align 2,,3
 957              		.global	HAL_PCD_EP_Close
 958              		.syntax unified
 959              		.thumb
 960              		.thumb_func
 961              		.fpu softvfp
 963              	HAL_PCD_EP_Close:
 964              	.LVL64:
 965              	.LFB88:
 887:Drivers/STM32F1xx_HAL_Driver/Src/stm32f1xx_hal_pcd.c **** 
 888:Drivers/STM32F1xx_HAL_Driver/Src/stm32f1xx_hal_pcd.c **** /**
 889:Drivers/STM32F1xx_HAL_Driver/Src/stm32f1xx_hal_pcd.c ****   * @brief  Deactivate an endpoint
 890:Drivers/STM32F1xx_HAL_Driver/Src/stm32f1xx_hal_pcd.c ****   * @param  hpcd: PCD handle
 891:Drivers/STM32F1xx_HAL_Driver/Src/stm32f1xx_hal_pcd.c ****   * @param  ep_addr: endpoint address
 892:Drivers/STM32F1xx_HAL_Driver/Src/stm32f1xx_hal_pcd.c ****   * @retval HAL status
 893:Drivers/STM32F1xx_HAL_Driver/Src/stm32f1xx_hal_pcd.c ****   */
 894:Drivers/STM32F1xx_HAL_Driver/Src/stm32f1xx_hal_pcd.c **** HAL_StatusTypeDef HAL_PCD_EP_Close(PCD_HandleTypeDef *hpcd, uint8_t ep_addr)
 895:Drivers/STM32F1xx_HAL_Driver/Src/stm32f1xx_hal_pcd.c **** {  
 966              		.loc 1 895 1 is_stmt 1 view -0
 967              		.cfi_startproc
 968              		@ args = 0, pretend = 0, frame = 0
 969              		@ frame_needed = 0, uses_anonymous_args = 0
 896:Drivers/STM32F1xx_HAL_Driver/Src/stm32f1xx_hal_pcd.c ****   PCD_EPTypeDef *ep = NULL;
 970              		.loc 1 896 3 view .LVU206
 897:Drivers/STM32F1xx_HAL_Driver/Src/stm32f1xx_hal_pcd.c ****   
 898:Drivers/STM32F1xx_HAL_Driver/Src/stm32f1xx_hal_pcd.c ****   if ((ep_addr & 0x80U) == 0x80U)
 971              		.loc 1 898 3 view .LVU207
 899:Drivers/STM32F1xx_HAL_Driver/Src/stm32f1xx_hal_pcd.c ****   {
 900:Drivers/STM32F1xx_HAL_Driver/Src/stm32f1xx_hal_pcd.c ****     ep = &hpcd->IN_ep[ep_addr & 0x7FU];
 972              		.loc 1 900 5 view .LVU208
 898:Drivers/STM32F1xx_HAL_Driver/Src/stm32f1xx_hal_pcd.c ****   {
 973              		.loc 1 898 25 is_stmt 0 view .LVU209
ARM GAS  C:\Users\Eemeli\AppData\Local\Temp\cccfLE7k.s 			page 35


 974 0000 4BB2     		sxtb	r3, r1
 898:Drivers/STM32F1xx_HAL_Driver/Src/stm32f1xx_hal_pcd.c ****   {
 975              		.loc 1 898 6 view .LVU210
 976 0002 002B     		cmp	r3, #0
 977 0004 01F07F02 		and	r2, r1, #127
 978              		.loc 1 900 8 view .LVU211
 979 0008 B5BF     		itete	lt
 980 000a 00EB4211 		addlt	r1, r0, r2, lsl #5
 981              	.LVL65:
 901:Drivers/STM32F1xx_HAL_Driver/Src/stm32f1xx_hal_pcd.c ****   }
 902:Drivers/STM32F1xx_HAL_Driver/Src/stm32f1xx_hal_pcd.c ****   else
 903:Drivers/STM32F1xx_HAL_Driver/Src/stm32f1xx_hal_pcd.c ****   {
 904:Drivers/STM32F1xx_HAL_Driver/Src/stm32f1xx_hal_pcd.c ****     ep = &hpcd->OUT_ep[ep_addr & 0x7FU];
 982              		.loc 1 904 8 view .LVU212
 983 000e 00EB4111 		addge	r1, r0, r1, lsl #5
 900:Drivers/STM32F1xx_HAL_Driver/Src/stm32f1xx_hal_pcd.c ****   }
 984              		.loc 1 900 8 view .LVU213
 985 0012 2831     		addlt	r1, r1, #40
 986              	.LVL66:
 987              		.loc 1 904 5 is_stmt 1 view .LVU214
 988              		.loc 1 904 8 is_stmt 0 view .LVU215
 989 0014 01F50A71 		addge	r1, r1, #552
 990              	.LVL67:
 905:Drivers/STM32F1xx_HAL_Driver/Src/stm32f1xx_hal_pcd.c ****   }
 906:Drivers/STM32F1xx_HAL_Driver/Src/stm32f1xx_hal_pcd.c ****   ep->num   = ep_addr & 0x7FU;
 991              		.loc 1 906 3 is_stmt 1 view .LVU216
 907:Drivers/STM32F1xx_HAL_Driver/Src/stm32f1xx_hal_pcd.c ****   
 908:Drivers/STM32F1xx_HAL_Driver/Src/stm32f1xx_hal_pcd.c ****   ep->is_in = (0x80U & ep_addr) != 0U;
 992              		.loc 1 908 33 is_stmt 0 view .LVU217
 993 0018 DB0F     		lsrs	r3, r3, #31
 994              	.LVL68:
 995              		.loc 1 908 13 view .LVU218
 996 001a 4B70     		strb	r3, [r1, #1]
 906:Drivers/STM32F1xx_HAL_Driver/Src/stm32f1xx_hal_pcd.c ****   
 997              		.loc 1 906 13 view .LVU219
 998 001c 0A70     		strb	r2, [r1]
 999              		.loc 1 908 3 is_stmt 1 view .LVU220
 909:Drivers/STM32F1xx_HAL_Driver/Src/stm32f1xx_hal_pcd.c ****   
 910:Drivers/STM32F1xx_HAL_Driver/Src/stm32f1xx_hal_pcd.c ****   __HAL_LOCK(hpcd);
 1000              		.loc 1 910 3 view .LVU221
 1001              		.loc 1 910 3 view .LVU222
 1002 001e 90F82834 		ldrb	r3, [r0, #1064]	@ zero_extendqisi2
 1003 0022 012B     		cmp	r3, #1
 1004 0024 0BD0     		beq	.L80
 1005              		.loc 1 910 3 discriminator 2 view .LVU223
 1006 0026 0123     		movs	r3, #1
 895:Drivers/STM32F1xx_HAL_Driver/Src/stm32f1xx_hal_pcd.c ****   PCD_EPTypeDef *ep = NULL;
 1007              		.loc 1 895 1 is_stmt 0 discriminator 2 view .LVU224
 1008 0028 10B5     		push	{r4, lr}
 1009              	.LCFI18:
 1010              		.cfi_def_cfa_offset 8
 1011              		.cfi_offset 4, -8
 1012              		.cfi_offset 14, -4
 1013 002a 0446     		mov	r4, r0
 1014              		.loc 1 910 3 discriminator 2 view .LVU225
 1015 002c 80F82834 		strb	r3, [r0, #1064]
 911:Drivers/STM32F1xx_HAL_Driver/Src/stm32f1xx_hal_pcd.c ****   USB_DeactivateEndpoint(hpcd->Instance , ep);
ARM GAS  C:\Users\Eemeli\AppData\Local\Temp\cccfLE7k.s 			page 36


 1016              		.loc 1 911 3 is_stmt 1 discriminator 2 view .LVU226
 1017 0030 0068     		ldr	r0, [r0]
 1018              	.LVL69:
 1019              		.loc 1 911 3 is_stmt 0 discriminator 2 view .LVU227
 1020 0032 FFF7FEFF 		bl	USB_DeactivateEndpoint
 1021              	.LVL70:
 912:Drivers/STM32F1xx_HAL_Driver/Src/stm32f1xx_hal_pcd.c ****   __HAL_UNLOCK(hpcd);
 1022              		.loc 1 912 3 is_stmt 1 discriminator 2 view .LVU228
 1023              		.loc 1 912 3 discriminator 2 view .LVU229
 1024 0036 0020     		movs	r0, #0
 1025 0038 84F82804 		strb	r0, [r4, #1064]
 913:Drivers/STM32F1xx_HAL_Driver/Src/stm32f1xx_hal_pcd.c ****   return HAL_OK;
 1026              		.loc 1 913 3 discriminator 2 view .LVU230
 914:Drivers/STM32F1xx_HAL_Driver/Src/stm32f1xx_hal_pcd.c **** }
 1027              		.loc 1 914 1 is_stmt 0 discriminator 2 view .LVU231
 1028 003c 10BD     		pop	{r4, pc}
 1029              	.LVL71:
 1030              	.L80:
 1031              	.LCFI19:
 1032              		.cfi_def_cfa_offset 0
 1033              		.cfi_restore 4
 1034              		.cfi_restore 14
 910:Drivers/STM32F1xx_HAL_Driver/Src/stm32f1xx_hal_pcd.c ****   USB_DeactivateEndpoint(hpcd->Instance , ep);
 1035              		.loc 1 910 3 view .LVU232
 1036 003e 0220     		movs	r0, #2
 1037              	.LVL72:
 1038              		.loc 1 914 1 view .LVU233
 1039 0040 7047     		bx	lr
 1040              		.cfi_endproc
 1041              	.LFE88:
 1043 0042 00BF     		.section	.text.HAL_PCD_EP_Receive,"ax",%progbits
 1044              		.align	1
 1045              		.p2align 2,,3
 1046              		.global	HAL_PCD_EP_Receive
 1047              		.syntax unified
 1048              		.thumb
 1049              		.thumb_func
 1050              		.fpu softvfp
 1052              	HAL_PCD_EP_Receive:
 1053              	.LVL73:
 1054              	.LFB89:
 915:Drivers/STM32F1xx_HAL_Driver/Src/stm32f1xx_hal_pcd.c **** 
 916:Drivers/STM32F1xx_HAL_Driver/Src/stm32f1xx_hal_pcd.c **** 
 917:Drivers/STM32F1xx_HAL_Driver/Src/stm32f1xx_hal_pcd.c **** /**
 918:Drivers/STM32F1xx_HAL_Driver/Src/stm32f1xx_hal_pcd.c ****   * @brief  Receive an amount of data
 919:Drivers/STM32F1xx_HAL_Driver/Src/stm32f1xx_hal_pcd.c ****   * @param  hpcd: PCD handle
 920:Drivers/STM32F1xx_HAL_Driver/Src/stm32f1xx_hal_pcd.c ****   * @param  ep_addr: endpoint address
 921:Drivers/STM32F1xx_HAL_Driver/Src/stm32f1xx_hal_pcd.c ****   * @param  pBuf: pointer to the reception buffer
 922:Drivers/STM32F1xx_HAL_Driver/Src/stm32f1xx_hal_pcd.c ****   * @param  len: amount of data to be received
 923:Drivers/STM32F1xx_HAL_Driver/Src/stm32f1xx_hal_pcd.c ****   * @retval HAL status
 924:Drivers/STM32F1xx_HAL_Driver/Src/stm32f1xx_hal_pcd.c ****   */
 925:Drivers/STM32F1xx_HAL_Driver/Src/stm32f1xx_hal_pcd.c **** HAL_StatusTypeDef HAL_PCD_EP_Receive(PCD_HandleTypeDef *hpcd, uint8_t ep_addr, uint8_t *pBuf, uint3
 926:Drivers/STM32F1xx_HAL_Driver/Src/stm32f1xx_hal_pcd.c **** {
 1055              		.loc 1 926 1 is_stmt 1 view -0
 1056              		.cfi_startproc
 1057              		@ args = 0, pretend = 0, frame = 0
 1058              		@ frame_needed = 0, uses_anonymous_args = 0
ARM GAS  C:\Users\Eemeli\AppData\Local\Temp\cccfLE7k.s 			page 37


 927:Drivers/STM32F1xx_HAL_Driver/Src/stm32f1xx_hal_pcd.c ****   PCD_EPTypeDef *ep = NULL;
 1059              		.loc 1 927 3 view .LVU235
 928:Drivers/STM32F1xx_HAL_Driver/Src/stm32f1xx_hal_pcd.c ****   
 929:Drivers/STM32F1xx_HAL_Driver/Src/stm32f1xx_hal_pcd.c ****   ep = &hpcd->OUT_ep[ep_addr & 0x7FU];
 1060              		.loc 1 929 3 view .LVU236
 926:Drivers/STM32F1xx_HAL_Driver/Src/stm32f1xx_hal_pcd.c ****   PCD_EPTypeDef *ep = NULL;
 1061              		.loc 1 926 1 is_stmt 0 view .LVU237
 1062 0000 70B5     		push	{r4, r5, r6, lr}
 1063              	.LCFI20:
 1064              		.cfi_def_cfa_offset 16
 1065              		.cfi_offset 4, -16
 1066              		.cfi_offset 5, -12
 1067              		.cfi_offset 6, -8
 1068              		.cfi_offset 14, -4
 930:Drivers/STM32F1xx_HAL_Driver/Src/stm32f1xx_hal_pcd.c ****   
 931:Drivers/STM32F1xx_HAL_Driver/Src/stm32f1xx_hal_pcd.c ****   /*setup and start the Xfer */
 932:Drivers/STM32F1xx_HAL_Driver/Src/stm32f1xx_hal_pcd.c ****   ep->xfer_buff = pBuf;  
 933:Drivers/STM32F1xx_HAL_Driver/Src/stm32f1xx_hal_pcd.c ****   ep->xfer_len = len;
 934:Drivers/STM32F1xx_HAL_Driver/Src/stm32f1xx_hal_pcd.c ****   ep->xfer_count = 0U;
 1069              		.loc 1 934 18 view .LVU238
 1070 0002 0026     		movs	r6, #0
 1071 0004 01F07F01 		and	r1, r1, #127
 1072              	.LVL74:
 1073              		.loc 1 934 18 view .LVU239
 1074 0008 4D01     		lsls	r5, r1, #5
 1075              	.LVL75:
 932:Drivers/STM32F1xx_HAL_Driver/Src/stm32f1xx_hal_pcd.c ****   ep->xfer_len = len;
 1076              		.loc 1 932 3 is_stmt 1 view .LVU240
 932:Drivers/STM32F1xx_HAL_Driver/Src/stm32f1xx_hal_pcd.c ****   ep->xfer_len = len;
 1077              		.loc 1 932 17 is_stmt 0 view .LVU241
 1078 000a 4419     		adds	r4, r0, r5
 929:Drivers/STM32F1xx_HAL_Driver/Src/stm32f1xx_hal_pcd.c ****   
 1079              		.loc 1 929 6 view .LVU242
 1080 000c 05F50A75 		add	r5, r5, #552
 1081              	.LVL76:
 935:Drivers/STM32F1xx_HAL_Driver/Src/stm32f1xx_hal_pcd.c ****   ep->is_in = 0U;
 936:Drivers/STM32F1xx_HAL_Driver/Src/stm32f1xx_hal_pcd.c ****   ep->num = ep_addr & 0x7FU;
 1082              		.loc 1 936 11 view .LVU243
 1083 0010 84F82812 		strb	r1, [r4, #552]
 933:Drivers/STM32F1xx_HAL_Driver/Src/stm32f1xx_hal_pcd.c ****   ep->xfer_count = 0U;
 1084              		.loc 1 933 16 view .LVU244
 1085 0014 C4E98F23 		strd	r2, r3, [r4, #572]
 934:Drivers/STM32F1xx_HAL_Driver/Src/stm32f1xx_hal_pcd.c ****   ep->is_in = 0U;
 1086              		.loc 1 934 3 is_stmt 1 view .LVU245
 937:Drivers/STM32F1xx_HAL_Driver/Src/stm32f1xx_hal_pcd.c **** 
 938:Drivers/STM32F1xx_HAL_Driver/Src/stm32f1xx_hal_pcd.c ****   if ((ep_addr & 0x7FU) == 0U)
 939:Drivers/STM32F1xx_HAL_Driver/Src/stm32f1xx_hal_pcd.c ****   {
 940:Drivers/STM32F1xx_HAL_Driver/Src/stm32f1xx_hal_pcd.c ****     USB_EP0StartXfer(hpcd->Instance , ep);
 941:Drivers/STM32F1xx_HAL_Driver/Src/stm32f1xx_hal_pcd.c ****   }
 942:Drivers/STM32F1xx_HAL_Driver/Src/stm32f1xx_hal_pcd.c ****   else
 943:Drivers/STM32F1xx_HAL_Driver/Src/stm32f1xx_hal_pcd.c ****   {
 944:Drivers/STM32F1xx_HAL_Driver/Src/stm32f1xx_hal_pcd.c ****     USB_EPStartXfer(hpcd->Instance , ep);
 1087              		.loc 1 944 5 is_stmt 0 view .LVU246
 1088 0018 4119     		adds	r1, r0, r5
 1089 001a 0068     		ldr	r0, [r0]
 1090              	.LVL77:
 934:Drivers/STM32F1xx_HAL_Driver/Src/stm32f1xx_hal_pcd.c ****   ep->is_in = 0U;
ARM GAS  C:\Users\Eemeli\AppData\Local\Temp\cccfLE7k.s 			page 38


 1091              		.loc 1 934 18 view .LVU247
 1092 001c C4F84462 		str	r6, [r4, #580]
 935:Drivers/STM32F1xx_HAL_Driver/Src/stm32f1xx_hal_pcd.c ****   ep->num = ep_addr & 0x7FU;
 1093              		.loc 1 935 3 is_stmt 1 view .LVU248
 935:Drivers/STM32F1xx_HAL_Driver/Src/stm32f1xx_hal_pcd.c ****   ep->num = ep_addr & 0x7FU;
 1094              		.loc 1 935 13 is_stmt 0 view .LVU249
 1095 0020 84F82962 		strb	r6, [r4, #553]
 936:Drivers/STM32F1xx_HAL_Driver/Src/stm32f1xx_hal_pcd.c **** 
 1096              		.loc 1 936 3 is_stmt 1 view .LVU250
 938:Drivers/STM32F1xx_HAL_Driver/Src/stm32f1xx_hal_pcd.c ****   {
 1097              		.loc 1 938 3 view .LVU251
 1098              		.loc 1 944 5 view .LVU252
 1099 0024 FFF7FEFF 		bl	USB_EPStartXfer
 1100              	.LVL78:
 945:Drivers/STM32F1xx_HAL_Driver/Src/stm32f1xx_hal_pcd.c ****   }
 946:Drivers/STM32F1xx_HAL_Driver/Src/stm32f1xx_hal_pcd.c **** 
 947:Drivers/STM32F1xx_HAL_Driver/Src/stm32f1xx_hal_pcd.c ****   return HAL_OK;
 1101              		.loc 1 947 3 view .LVU253
 948:Drivers/STM32F1xx_HAL_Driver/Src/stm32f1xx_hal_pcd.c **** }
 1102              		.loc 1 948 1 is_stmt 0 view .LVU254
 1103 0028 3046     		mov	r0, r6
 1104 002a 70BD     		pop	{r4, r5, r6, pc}
 1105              		.loc 1 948 1 view .LVU255
 1106              		.cfi_endproc
 1107              	.LFE89:
 1109              		.section	.text.HAL_PCD_EP_GetRxCount,"ax",%progbits
 1110              		.align	1
 1111              		.p2align 2,,3
 1112              		.global	HAL_PCD_EP_GetRxCount
 1113              		.syntax unified
 1114              		.thumb
 1115              		.thumb_func
 1116              		.fpu softvfp
 1118              	HAL_PCD_EP_GetRxCount:
 1119              	.LVL79:
 1120              	.LFB90:
 949:Drivers/STM32F1xx_HAL_Driver/Src/stm32f1xx_hal_pcd.c **** 
 950:Drivers/STM32F1xx_HAL_Driver/Src/stm32f1xx_hal_pcd.c **** /**
 951:Drivers/STM32F1xx_HAL_Driver/Src/stm32f1xx_hal_pcd.c ****   * @brief  Get Received Data Size
 952:Drivers/STM32F1xx_HAL_Driver/Src/stm32f1xx_hal_pcd.c ****   * @param  hpcd: PCD handle
 953:Drivers/STM32F1xx_HAL_Driver/Src/stm32f1xx_hal_pcd.c ****   * @param  ep_addr: endpoint address
 954:Drivers/STM32F1xx_HAL_Driver/Src/stm32f1xx_hal_pcd.c ****   * @retval Data Size
 955:Drivers/STM32F1xx_HAL_Driver/Src/stm32f1xx_hal_pcd.c ****   */
 956:Drivers/STM32F1xx_HAL_Driver/Src/stm32f1xx_hal_pcd.c **** uint16_t HAL_PCD_EP_GetRxCount(PCD_HandleTypeDef *hpcd, uint8_t ep_addr)
 957:Drivers/STM32F1xx_HAL_Driver/Src/stm32f1xx_hal_pcd.c **** {
 1121              		.loc 1 957 1 is_stmt 1 view -0
 1122              		.cfi_startproc
 1123              		@ args = 0, pretend = 0, frame = 0
 1124              		@ frame_needed = 0, uses_anonymous_args = 0
 1125              		@ link register save eliminated.
 958:Drivers/STM32F1xx_HAL_Driver/Src/stm32f1xx_hal_pcd.c ****   return hpcd->OUT_ep[ep_addr & 0xF].xfer_count;
 1126              		.loc 1 958 3 view .LVU257
 1127              		.loc 1 958 31 is_stmt 0 view .LVU258
 1128 0000 01F00F01 		and	r1, r1, #15
 1129              	.LVL80:
 1130              		.loc 1 958 37 view .LVU259
 1131 0004 00EB4111 		add	r1, r0, r1, lsl #5
ARM GAS  C:\Users\Eemeli\AppData\Local\Temp\cccfLE7k.s 			page 39


 959:Drivers/STM32F1xx_HAL_Driver/Src/stm32f1xx_hal_pcd.c **** }
 1132              		.loc 1 959 1 view .LVU260
 1133 0008 B1F84402 		ldrh	r0, [r1, #580]
 1134              	.LVL81:
 1135              		.loc 1 959 1 view .LVU261
 1136 000c 7047     		bx	lr
 1137              		.cfi_endproc
 1138              	.LFE90:
 1140 000e 00BF     		.section	.text.HAL_PCD_EP_Transmit,"ax",%progbits
 1141              		.align	1
 1142              		.p2align 2,,3
 1143              		.global	HAL_PCD_EP_Transmit
 1144              		.syntax unified
 1145              		.thumb
 1146              		.thumb_func
 1147              		.fpu softvfp
 1149              	HAL_PCD_EP_Transmit:
 1150              	.LVL82:
 1151              	.LFB91:
 960:Drivers/STM32F1xx_HAL_Driver/Src/stm32f1xx_hal_pcd.c **** /**
 961:Drivers/STM32F1xx_HAL_Driver/Src/stm32f1xx_hal_pcd.c ****   * @brief  Send an amount of data
 962:Drivers/STM32F1xx_HAL_Driver/Src/stm32f1xx_hal_pcd.c ****   * @param  hpcd: PCD handle
 963:Drivers/STM32F1xx_HAL_Driver/Src/stm32f1xx_hal_pcd.c ****   * @param  ep_addr: endpoint address
 964:Drivers/STM32F1xx_HAL_Driver/Src/stm32f1xx_hal_pcd.c ****   * @param  pBuf: pointer to the transmission buffer
 965:Drivers/STM32F1xx_HAL_Driver/Src/stm32f1xx_hal_pcd.c ****   * @param  len: amount of data to be sent
 966:Drivers/STM32F1xx_HAL_Driver/Src/stm32f1xx_hal_pcd.c ****   * @retval HAL status
 967:Drivers/STM32F1xx_HAL_Driver/Src/stm32f1xx_hal_pcd.c ****   */
 968:Drivers/STM32F1xx_HAL_Driver/Src/stm32f1xx_hal_pcd.c **** HAL_StatusTypeDef HAL_PCD_EP_Transmit(PCD_HandleTypeDef *hpcd, uint8_t ep_addr, uint8_t *pBuf, uint
 969:Drivers/STM32F1xx_HAL_Driver/Src/stm32f1xx_hal_pcd.c **** {
 1152              		.loc 1 969 1 is_stmt 1 view -0
 1153              		.cfi_startproc
 1154              		@ args = 0, pretend = 0, frame = 0
 1155              		@ frame_needed = 0, uses_anonymous_args = 0
 970:Drivers/STM32F1xx_HAL_Driver/Src/stm32f1xx_hal_pcd.c ****   PCD_EPTypeDef *ep = NULL;
 1156              		.loc 1 970 3 view .LVU263
 971:Drivers/STM32F1xx_HAL_Driver/Src/stm32f1xx_hal_pcd.c ****   
 972:Drivers/STM32F1xx_HAL_Driver/Src/stm32f1xx_hal_pcd.c ****   ep = &hpcd->IN_ep[ep_addr & 0x7FU];
 1157              		.loc 1 972 3 view .LVU264
 969:Drivers/STM32F1xx_HAL_Driver/Src/stm32f1xx_hal_pcd.c ****   PCD_EPTypeDef *ep = NULL;
 1158              		.loc 1 969 1 is_stmt 0 view .LVU265
 1159 0000 F8B5     		push	{r3, r4, r5, r6, r7, lr}
 1160              	.LCFI21:
 1161              		.cfi_def_cfa_offset 24
 1162              		.cfi_offset 3, -24
 1163              		.cfi_offset 4, -20
 1164              		.cfi_offset 5, -16
 1165              		.cfi_offset 6, -12
 1166              		.cfi_offset 7, -8
 1167              		.cfi_offset 14, -4
 973:Drivers/STM32F1xx_HAL_Driver/Src/stm32f1xx_hal_pcd.c ****   
 974:Drivers/STM32F1xx_HAL_Driver/Src/stm32f1xx_hal_pcd.c ****   /*setup and start the Xfer */
 975:Drivers/STM32F1xx_HAL_Driver/Src/stm32f1xx_hal_pcd.c ****   ep->xfer_buff = pBuf;  
 976:Drivers/STM32F1xx_HAL_Driver/Src/stm32f1xx_hal_pcd.c ****   ep->xfer_len = len;
 977:Drivers/STM32F1xx_HAL_Driver/Src/stm32f1xx_hal_pcd.c ****   ep->xfer_count = 0U;
 1168              		.loc 1 977 18 view .LVU266
 1169 0002 0026     		movs	r6, #0
 978:Drivers/STM32F1xx_HAL_Driver/Src/stm32f1xx_hal_pcd.c ****   ep->is_in = 1U;
ARM GAS  C:\Users\Eemeli\AppData\Local\Temp\cccfLE7k.s 			page 40


 1170              		.loc 1 978 13 view .LVU267
 1171 0004 0127     		movs	r7, #1
 1172 0006 01F07F01 		and	r1, r1, #127
 1173              	.LVL83:
 1174              		.loc 1 978 13 view .LVU268
 1175 000a 4D01     		lsls	r5, r1, #5
 1176              	.LVL84:
 975:Drivers/STM32F1xx_HAL_Driver/Src/stm32f1xx_hal_pcd.c ****   ep->xfer_len = len;
 1177              		.loc 1 975 3 is_stmt 1 view .LVU269
 975:Drivers/STM32F1xx_HAL_Driver/Src/stm32f1xx_hal_pcd.c ****   ep->xfer_len = len;
 1178              		.loc 1 975 17 is_stmt 0 view .LVU270
 1179 000c 4419     		adds	r4, r0, r5
 972:Drivers/STM32F1xx_HAL_Driver/Src/stm32f1xx_hal_pcd.c ****   
 1180              		.loc 1 972 6 view .LVU271
 1181 000e 2835     		adds	r5, r5, #40
 1182              	.LVL85:
 979:Drivers/STM32F1xx_HAL_Driver/Src/stm32f1xx_hal_pcd.c ****   ep->num = ep_addr & 0x7FU;
 1183              		.loc 1 979 11 view .LVU272
 1184 0010 84F82810 		strb	r1, [r4, #40]
 976:Drivers/STM32F1xx_HAL_Driver/Src/stm32f1xx_hal_pcd.c ****   ep->xfer_count = 0U;
 1185              		.loc 1 976 16 view .LVU273
 1186 0014 C4E90F23 		strd	r2, r3, [r4, #60]
 977:Drivers/STM32F1xx_HAL_Driver/Src/stm32f1xx_hal_pcd.c ****   ep->is_in = 1U;
 1187              		.loc 1 977 3 is_stmt 1 view .LVU274
 980:Drivers/STM32F1xx_HAL_Driver/Src/stm32f1xx_hal_pcd.c **** 
 981:Drivers/STM32F1xx_HAL_Driver/Src/stm32f1xx_hal_pcd.c ****   if ((ep_addr & 0x7FU) == 0U)
 982:Drivers/STM32F1xx_HAL_Driver/Src/stm32f1xx_hal_pcd.c ****   {
 983:Drivers/STM32F1xx_HAL_Driver/Src/stm32f1xx_hal_pcd.c ****     USB_EP0StartXfer(hpcd->Instance , ep);
 984:Drivers/STM32F1xx_HAL_Driver/Src/stm32f1xx_hal_pcd.c ****   }
 985:Drivers/STM32F1xx_HAL_Driver/Src/stm32f1xx_hal_pcd.c ****   else
 986:Drivers/STM32F1xx_HAL_Driver/Src/stm32f1xx_hal_pcd.c ****   {
 987:Drivers/STM32F1xx_HAL_Driver/Src/stm32f1xx_hal_pcd.c ****     USB_EPStartXfer(hpcd->Instance , ep);
 1188              		.loc 1 987 5 is_stmt 0 view .LVU275
 1189 0018 4119     		adds	r1, r0, r5
 1190 001a 0068     		ldr	r0, [r0]
 1191              	.LVL86:
 978:Drivers/STM32F1xx_HAL_Driver/Src/stm32f1xx_hal_pcd.c ****   ep->num = ep_addr & 0x7FU;
 1192              		.loc 1 978 13 view .LVU276
 1193 001c 84F82970 		strb	r7, [r4, #41]
 977:Drivers/STM32F1xx_HAL_Driver/Src/stm32f1xx_hal_pcd.c ****   ep->is_in = 1U;
 1194              		.loc 1 977 18 view .LVU277
 1195 0020 6664     		str	r6, [r4, #68]
 978:Drivers/STM32F1xx_HAL_Driver/Src/stm32f1xx_hal_pcd.c ****   ep->num = ep_addr & 0x7FU;
 1196              		.loc 1 978 3 is_stmt 1 view .LVU278
 979:Drivers/STM32F1xx_HAL_Driver/Src/stm32f1xx_hal_pcd.c **** 
 1197              		.loc 1 979 3 view .LVU279
 981:Drivers/STM32F1xx_HAL_Driver/Src/stm32f1xx_hal_pcd.c ****   {
 1198              		.loc 1 981 3 view .LVU280
 1199              		.loc 1 987 5 view .LVU281
 1200 0022 FFF7FEFF 		bl	USB_EPStartXfer
 1201              	.LVL87:
 988:Drivers/STM32F1xx_HAL_Driver/Src/stm32f1xx_hal_pcd.c ****   }
 989:Drivers/STM32F1xx_HAL_Driver/Src/stm32f1xx_hal_pcd.c **** 
 990:Drivers/STM32F1xx_HAL_Driver/Src/stm32f1xx_hal_pcd.c ****   return HAL_OK;
 1202              		.loc 1 990 3 view .LVU282
 991:Drivers/STM32F1xx_HAL_Driver/Src/stm32f1xx_hal_pcd.c **** }
 1203              		.loc 1 991 1 is_stmt 0 view .LVU283
ARM GAS  C:\Users\Eemeli\AppData\Local\Temp\cccfLE7k.s 			page 41


 1204 0026 3046     		mov	r0, r6
 1205 0028 F8BD     		pop	{r3, r4, r5, r6, r7, pc}
 1206              		.loc 1 991 1 view .LVU284
 1207              		.cfi_endproc
 1208              	.LFE91:
 1210 002a 00BF     		.section	.text.HAL_PCD_IRQHandler,"ax",%progbits
 1211              		.align	1
 1212              		.p2align 2,,3
 1213              		.global	HAL_PCD_IRQHandler
 1214              		.syntax unified
 1215              		.thumb
 1216              		.thumb_func
 1217              		.fpu softvfp
 1219              	HAL_PCD_IRQHandler:
 1220              	.LVL88:
 1221              	.LFB72:
 570:Drivers/STM32F1xx_HAL_Driver/Src/stm32f1xx_hal_pcd.c ****   if (__HAL_PCD_GET_FLAG (hpcd, USB_ISTR_CTR))
 1222              		.loc 1 570 1 is_stmt 1 view -0
 1223              		.cfi_startproc
 1224              		@ args = 0, pretend = 0, frame = 8
 1225              		@ frame_needed = 0, uses_anonymous_args = 0
 571:Drivers/STM32F1xx_HAL_Driver/Src/stm32f1xx_hal_pcd.c ****   {
 1226              		.loc 1 571 3 view .LVU286
 570:Drivers/STM32F1xx_HAL_Driver/Src/stm32f1xx_hal_pcd.c ****   if (__HAL_PCD_GET_FLAG (hpcd, USB_ISTR_CTR))
 1227              		.loc 1 570 1 is_stmt 0 view .LVU287
 1228 0000 2DE9F04F 		push	{r4, r5, r6, r7, r8, r9, r10, fp, lr}
 1229              	.LCFI22:
 1230              		.cfi_def_cfa_offset 36
 1231              		.cfi_offset 4, -36
 1232              		.cfi_offset 5, -32
 1233              		.cfi_offset 6, -28
 1234              		.cfi_offset 7, -24
 1235              		.cfi_offset 8, -20
 1236              		.cfi_offset 9, -16
 1237              		.cfi_offset 10, -12
 1238              		.cfi_offset 11, -8
 1239              		.cfi_offset 14, -4
 1240 0004 0446     		mov	r4, r0
 1241 0006 83B0     		sub	sp, sp, #12
 1242              	.LCFI23:
 1243              		.cfi_def_cfa_offset 48
 571:Drivers/STM32F1xx_HAL_Driver/Src/stm32f1xx_hal_pcd.c ****   {
 1244              		.loc 1 571 7 view .LVU288
 1245 0008 0068     		ldr	r0, [r0]
 1246              	.LVL89:
 571:Drivers/STM32F1xx_HAL_Driver/Src/stm32f1xx_hal_pcd.c ****   {
 1247              		.loc 1 571 7 view .LVU289
 1248 000a FFF7FEFF 		bl	USB_ReadInterrupts
 1249              	.LVL90:
 571:Drivers/STM32F1xx_HAL_Driver/Src/stm32f1xx_hal_pcd.c ****   {
 1250              		.loc 1 571 6 view .LVU290
 1251 000e 0004     		lsls	r0, r0, #16
 1252 0010 00F1B580 		bmi	.L91
 1253 0014 2268     		ldr	r2, [r4]
 1254              	.L92:
 578:Drivers/STM32F1xx_HAL_Driver/Src/stm32f1xx_hal_pcd.c ****   {
 1255              		.loc 1 578 3 is_stmt 1 view .LVU291
ARM GAS  C:\Users\Eemeli\AppData\Local\Temp\cccfLE7k.s 			page 42


 578:Drivers/STM32F1xx_HAL_Driver/Src/stm32f1xx_hal_pcd.c ****   {
 1256              		.loc 1 578 7 is_stmt 0 view .LVU292
 1257 0016 1046     		mov	r0, r2
 1258 0018 FFF7FEFF 		bl	USB_ReadInterrupts
 1259              	.LVL91:
 578:Drivers/STM32F1xx_HAL_Driver/Src/stm32f1xx_hal_pcd.c ****   {
 1260              		.loc 1 578 6 view .LVU293
 1261 001c 4605     		lsls	r6, r0, #21
 1262 001e 00F19080 		bmi	.L171
 1263              	.L119:
 585:Drivers/STM32F1xx_HAL_Driver/Src/stm32f1xx_hal_pcd.c ****   {
 1264              		.loc 1 585 3 is_stmt 1 view .LVU294
 585:Drivers/STM32F1xx_HAL_Driver/Src/stm32f1xx_hal_pcd.c ****   {
 1265              		.loc 1 585 7 is_stmt 0 view .LVU295
 1266 0022 2068     		ldr	r0, [r4]
 1267 0024 FFF7FEFF 		bl	USB_ReadInterrupts
 1268              	.LVL92:
 585:Drivers/STM32F1xx_HAL_Driver/Src/stm32f1xx_hal_pcd.c ****   {
 1269              		.loc 1 585 6 view .LVU296
 1270 0028 10F4804F 		tst	r0, #16384
 587:Drivers/STM32F1xx_HAL_Driver/Src/stm32f1xx_hal_pcd.c ****   }
 1271              		.loc 1 587 5 view .LVU297
 1272 002c 2068     		ldr	r0, [r4]
 585:Drivers/STM32F1xx_HAL_Driver/Src/stm32f1xx_hal_pcd.c ****   {
 1273              		.loc 1 585 6 view .LVU298
 1274 002e 07D0     		beq	.L122
 587:Drivers/STM32F1xx_HAL_Driver/Src/stm32f1xx_hal_pcd.c ****   }
 1275              		.loc 1 587 5 is_stmt 1 view .LVU299
 1276 0030 B0F84430 		ldrh	r3, [r0, #68]
 1277 0034 23F48043 		bic	r3, r3, #16384
 1278 0038 1B04     		lsls	r3, r3, #16
 1279 003a 1B0C     		lsrs	r3, r3, #16
 1280 003c A0F84430 		strh	r3, [r0, #68]	@ movhi
 1281              	.L122:
 589:Drivers/STM32F1xx_HAL_Driver/Src/stm32f1xx_hal_pcd.c ****   {
 1282              		.loc 1 589 3 view .LVU300
 589:Drivers/STM32F1xx_HAL_Driver/Src/stm32f1xx_hal_pcd.c ****   {
 1283              		.loc 1 589 7 is_stmt 0 view .LVU301
 1284 0040 FFF7FEFF 		bl	USB_ReadInterrupts
 1285              	.LVL93:
 589:Drivers/STM32F1xx_HAL_Driver/Src/stm32f1xx_hal_pcd.c ****   {
 1286              		.loc 1 589 6 view .LVU302
 1287 0044 10F4005F 		tst	r0, #8192
 591:Drivers/STM32F1xx_HAL_Driver/Src/stm32f1xx_hal_pcd.c ****   }
 1288              		.loc 1 591 5 view .LVU303
 1289 0048 2068     		ldr	r0, [r4]
 589:Drivers/STM32F1xx_HAL_Driver/Src/stm32f1xx_hal_pcd.c ****   {
 1290              		.loc 1 589 6 view .LVU304
 1291 004a 1ED1     		bne	.L123
 594:Drivers/STM32F1xx_HAL_Driver/Src/stm32f1xx_hal_pcd.c ****   {
 1292              		.loc 1 594 3 is_stmt 1 view .LVU305
 594:Drivers/STM32F1xx_HAL_Driver/Src/stm32f1xx_hal_pcd.c ****   {
 1293              		.loc 1 594 7 is_stmt 0 view .LVU306
 1294 004c FFF7FEFF 		bl	USB_ReadInterrupts
 1295              	.LVL94:
 594:Drivers/STM32F1xx_HAL_Driver/Src/stm32f1xx_hal_pcd.c ****   {
 1296              		.loc 1 594 6 view .LVU307
ARM GAS  C:\Users\Eemeli\AppData\Local\Temp\cccfLE7k.s 			page 43


 1297 0050 C504     		lsls	r5, r0, #19
 1298 0052 26D4     		bmi	.L125
 1299              	.L174:
 604:Drivers/STM32F1xx_HAL_Driver/Src/stm32f1xx_hal_pcd.c ****   { 
 1300              		.loc 1 604 3 is_stmt 1 view .LVU308
 1301 0054 2068     		ldr	r0, [r4]
 604:Drivers/STM32F1xx_HAL_Driver/Src/stm32f1xx_hal_pcd.c ****   { 
 1302              		.loc 1 604 7 is_stmt 0 view .LVU309
 1303 0056 FFF7FEFF 		bl	USB_ReadInterrupts
 1304              	.LVL95:
 604:Drivers/STM32F1xx_HAL_Driver/Src/stm32f1xx_hal_pcd.c ****   { 
 1305              		.loc 1 604 6 view .LVU310
 1306 005a 0005     		lsls	r0, r0, #20
 1307 005c 42D4     		bmi	.L172
 1308              	.L128:
 619:Drivers/STM32F1xx_HAL_Driver/Src/stm32f1xx_hal_pcd.c ****   {
 1309              		.loc 1 619 3 is_stmt 1 view .LVU311
 619:Drivers/STM32F1xx_HAL_Driver/Src/stm32f1xx_hal_pcd.c ****   {
 1310              		.loc 1 619 7 is_stmt 0 view .LVU312
 1311 005e 2068     		ldr	r0, [r4]
 1312 0060 FFF7FEFF 		bl	USB_ReadInterrupts
 1313              	.LVL96:
 619:Drivers/STM32F1xx_HAL_Driver/Src/stm32f1xx_hal_pcd.c ****   {
 1314              		.loc 1 619 6 view .LVU313
 1315 0064 8205     		lsls	r2, r0, #22
 1316 0066 5FD4     		bmi	.L173
 1317              	.L130:
 625:Drivers/STM32F1xx_HAL_Driver/Src/stm32f1xx_hal_pcd.c ****   {
 1318              		.loc 1 625 3 is_stmt 1 view .LVU314
 625:Drivers/STM32F1xx_HAL_Driver/Src/stm32f1xx_hal_pcd.c ****   {
 1319              		.loc 1 625 7 is_stmt 0 view .LVU315
 1320 0068 2068     		ldr	r0, [r4]
 1321 006a FFF7FEFF 		bl	USB_ReadInterrupts
 1322              	.LVL97:
 625:Drivers/STM32F1xx_HAL_Driver/Src/stm32f1xx_hal_pcd.c ****   {
 1323              		.loc 1 625 6 view .LVU316
 1324 006e C305     		lsls	r3, r0, #23
 1325 0070 08D5     		bpl	.L90
 628:Drivers/STM32F1xx_HAL_Driver/Src/stm32f1xx_hal_pcd.c ****   }
 1326              		.loc 1 628 5 is_stmt 1 view .LVU317
 1327 0072 2268     		ldr	r2, [r4]
 1328 0074 B2F84430 		ldrh	r3, [r2, #68]
 1329 0078 23F48073 		bic	r3, r3, #256
 1330 007c 1B04     		lsls	r3, r3, #16
 1331 007e 1B0C     		lsrs	r3, r3, #16
 1332 0080 A2F84430 		strh	r3, [r2, #68]	@ movhi
 1333              	.L90:
 630:Drivers/STM32F1xx_HAL_Driver/Src/stm32f1xx_hal_pcd.c **** #endif /* USB */
 1334              		.loc 1 630 1 is_stmt 0 view .LVU318
 1335 0084 03B0     		add	sp, sp, #12
 1336              	.LCFI24:
 1337              		.cfi_remember_state
 1338              		.cfi_def_cfa_offset 36
 1339              		@ sp needed
 1340 0086 BDE8F08F 		pop	{r4, r5, r6, r7, r8, r9, r10, fp, pc}
 1341              	.LVL98:
 1342              	.L123:
ARM GAS  C:\Users\Eemeli\AppData\Local\Temp\cccfLE7k.s 			page 44


 1343              	.LCFI25:
 1344              		.cfi_restore_state
 591:Drivers/STM32F1xx_HAL_Driver/Src/stm32f1xx_hal_pcd.c ****   }
 1345              		.loc 1 591 5 is_stmt 1 view .LVU319
 1346 008a B0F84430 		ldrh	r3, [r0, #68]
 1347 008e 23F40053 		bic	r3, r3, #8192
 1348 0092 1B04     		lsls	r3, r3, #16
 1349 0094 1B0C     		lsrs	r3, r3, #16
 1350 0096 A0F84430 		strh	r3, [r0, #68]	@ movhi
 594:Drivers/STM32F1xx_HAL_Driver/Src/stm32f1xx_hal_pcd.c ****   {
 1351              		.loc 1 594 3 view .LVU320
 594:Drivers/STM32F1xx_HAL_Driver/Src/stm32f1xx_hal_pcd.c ****   {
 1352              		.loc 1 594 7 is_stmt 0 view .LVU321
 1353 009a FFF7FEFF 		bl	USB_ReadInterrupts
 1354              	.LVL99:
 594:Drivers/STM32F1xx_HAL_Driver/Src/stm32f1xx_hal_pcd.c ****   {
 1355              		.loc 1 594 6 view .LVU322
 1356 009e C504     		lsls	r5, r0, #19
 1357 00a0 D8D5     		bpl	.L174
 1358              	.L125:
 596:Drivers/STM32F1xx_HAL_Driver/Src/stm32f1xx_hal_pcd.c ****     hpcd->Instance->CNTR &= ~(USB_CNTR_FSUSP);
 1359              		.loc 1 596 5 is_stmt 1 view .LVU323
 596:Drivers/STM32F1xx_HAL_Driver/Src/stm32f1xx_hal_pcd.c ****     hpcd->Instance->CNTR &= ~(USB_CNTR_FSUSP);
 1360              		.loc 1 596 9 is_stmt 0 view .LVU324
 1361 00a2 2268     		ldr	r2, [r4]
 599:Drivers/STM32F1xx_HAL_Driver/Src/stm32f1xx_hal_pcd.c **** 
 1362              		.loc 1 599 5 view .LVU325
 1363 00a4 2046     		mov	r0, r4
 596:Drivers/STM32F1xx_HAL_Driver/Src/stm32f1xx_hal_pcd.c ****     hpcd->Instance->CNTR &= ~(USB_CNTR_FSUSP);
 1364              		.loc 1 596 26 view .LVU326
 1365 00a6 B2F84030 		ldrh	r3, [r2, #64]
 1366 00aa 23F00403 		bic	r3, r3, #4
 1367 00ae 1B04     		lsls	r3, r3, #16
 1368 00b0 1B0C     		lsrs	r3, r3, #16
 1369 00b2 A2F84030 		strh	r3, [r2, #64]	@ movhi
 597:Drivers/STM32F1xx_HAL_Driver/Src/stm32f1xx_hal_pcd.c ****     
 1370              		.loc 1 597 5 is_stmt 1 view .LVU327
 597:Drivers/STM32F1xx_HAL_Driver/Src/stm32f1xx_hal_pcd.c ****     
 1371              		.loc 1 597 26 is_stmt 0 view .LVU328
 1372 00b6 B2F84030 		ldrh	r3, [r2, #64]
 1373 00ba 23F00803 		bic	r3, r3, #8
 1374 00be 1B04     		lsls	r3, r3, #16
 1375 00c0 1B0C     		lsrs	r3, r3, #16
 1376 00c2 A2F84030 		strh	r3, [r2, #64]	@ movhi
 599:Drivers/STM32F1xx_HAL_Driver/Src/stm32f1xx_hal_pcd.c **** 
 1377              		.loc 1 599 5 is_stmt 1 view .LVU329
 1378 00c6 FFF7FEFF 		bl	HAL_PCD_ResumeCallback
 1379              	.LVL100:
 601:Drivers/STM32F1xx_HAL_Driver/Src/stm32f1xx_hal_pcd.c ****   }
 1380              		.loc 1 601 5 view .LVU330
 1381 00ca 2068     		ldr	r0, [r4]
 1382 00cc B0F84430 		ldrh	r3, [r0, #68]
 1383 00d0 23F48053 		bic	r3, r3, #4096
 1384 00d4 1B04     		lsls	r3, r3, #16
 1385 00d6 1B0C     		lsrs	r3, r3, #16
 1386 00d8 A0F84430 		strh	r3, [r0, #68]	@ movhi
 604:Drivers/STM32F1xx_HAL_Driver/Src/stm32f1xx_hal_pcd.c ****   { 
ARM GAS  C:\Users\Eemeli\AppData\Local\Temp\cccfLE7k.s 			page 45


 1387              		.loc 1 604 3 view .LVU331
 604:Drivers/STM32F1xx_HAL_Driver/Src/stm32f1xx_hal_pcd.c ****   { 
 1388              		.loc 1 604 7 is_stmt 0 view .LVU332
 1389 00dc FFF7FEFF 		bl	USB_ReadInterrupts
 1390              	.LVL101:
 604:Drivers/STM32F1xx_HAL_Driver/Src/stm32f1xx_hal_pcd.c ****   { 
 1391              		.loc 1 604 6 view .LVU333
 1392 00e0 0005     		lsls	r0, r0, #20
 1393 00e2 BCD5     		bpl	.L128
 1394              	.L172:
 607:Drivers/STM32F1xx_HAL_Driver/Src/stm32f1xx_hal_pcd.c ****     
 1395              		.loc 1 607 5 is_stmt 1 view .LVU334
 607:Drivers/STM32F1xx_HAL_Driver/Src/stm32f1xx_hal_pcd.c ****     
 1396              		.loc 1 607 9 is_stmt 0 view .LVU335
 1397 00e4 2368     		ldr	r3, [r4]
 607:Drivers/STM32F1xx_HAL_Driver/Src/stm32f1xx_hal_pcd.c ****     
 1398              		.loc 1 607 26 view .LVU336
 1399 00e6 B3F84020 		ldrh	r2, [r3, #64]
 613:Drivers/STM32F1xx_HAL_Driver/Src/stm32f1xx_hal_pcd.c ****     {
 1400              		.loc 1 613 9 view .LVU337
 1401 00ea 1846     		mov	r0, r3
 607:Drivers/STM32F1xx_HAL_Driver/Src/stm32f1xx_hal_pcd.c ****     
 1402              		.loc 1 607 26 view .LVU338
 1403 00ec 42F00802 		orr	r2, r2, #8
 1404 00f0 A3F84020 		strh	r2, [r3, #64]	@ movhi
 610:Drivers/STM32F1xx_HAL_Driver/Src/stm32f1xx_hal_pcd.c **** 
 1405              		.loc 1 610 5 is_stmt 1 view .LVU339
 1406 00f4 B3F84420 		ldrh	r2, [r3, #68]
 1407 00f8 22F40062 		bic	r2, r2, #2048
 1408 00fc 1204     		lsls	r2, r2, #16
 1409 00fe 120C     		lsrs	r2, r2, #16
 1410 0100 A3F84420 		strh	r2, [r3, #68]	@ movhi
 612:Drivers/STM32F1xx_HAL_Driver/Src/stm32f1xx_hal_pcd.c ****     if (__HAL_PCD_GET_FLAG (hpcd, USB_ISTR_WKUP) == 0U)
 1411              		.loc 1 612 5 view .LVU340
 612:Drivers/STM32F1xx_HAL_Driver/Src/stm32f1xx_hal_pcd.c ****     if (__HAL_PCD_GET_FLAG (hpcd, USB_ISTR_WKUP) == 0U)
 1412              		.loc 1 612 26 is_stmt 0 view .LVU341
 1413 0104 B3F84020 		ldrh	r2, [r3, #64]
 1414 0108 42F00402 		orr	r2, r2, #4
 1415 010c A3F84020 		strh	r2, [r3, #64]	@ movhi
 613:Drivers/STM32F1xx_HAL_Driver/Src/stm32f1xx_hal_pcd.c ****     {
 1416              		.loc 1 613 5 is_stmt 1 view .LVU342
 613:Drivers/STM32F1xx_HAL_Driver/Src/stm32f1xx_hal_pcd.c ****     {
 1417              		.loc 1 613 9 is_stmt 0 view .LVU343
 1418 0110 FFF7FEFF 		bl	USB_ReadInterrupts
 1419              	.LVL102:
 613:Drivers/STM32F1xx_HAL_Driver/Src/stm32f1xx_hal_pcd.c ****     {
 1420              		.loc 1 613 8 view .LVU344
 1421 0114 C104     		lsls	r1, r0, #19
 1422 0116 A2D4     		bmi	.L128
 615:Drivers/STM32F1xx_HAL_Driver/Src/stm32f1xx_hal_pcd.c ****     }
 1423              		.loc 1 615 7 is_stmt 1 view .LVU345
 1424 0118 2046     		mov	r0, r4
 1425 011a FFF7FEFF 		bl	HAL_PCD_SuspendCallback
 1426              	.LVL103:
 619:Drivers/STM32F1xx_HAL_Driver/Src/stm32f1xx_hal_pcd.c ****   {
 1427              		.loc 1 619 3 view .LVU346
 619:Drivers/STM32F1xx_HAL_Driver/Src/stm32f1xx_hal_pcd.c ****   {
ARM GAS  C:\Users\Eemeli\AppData\Local\Temp\cccfLE7k.s 			page 46


 1428              		.loc 1 619 7 is_stmt 0 view .LVU347
 1429 011e 2068     		ldr	r0, [r4]
 1430 0120 FFF7FEFF 		bl	USB_ReadInterrupts
 1431              	.LVL104:
 619:Drivers/STM32F1xx_HAL_Driver/Src/stm32f1xx_hal_pcd.c ****   {
 1432              		.loc 1 619 6 view .LVU348
 1433 0124 8205     		lsls	r2, r0, #22
 1434 0126 9FD5     		bpl	.L130
 1435              	.L173:
 621:Drivers/STM32F1xx_HAL_Driver/Src/stm32f1xx_hal_pcd.c ****     HAL_PCD_SOFCallback(hpcd);
 1436              		.loc 1 621 5 is_stmt 1 view .LVU349
 1437 0128 2268     		ldr	r2, [r4]
 622:Drivers/STM32F1xx_HAL_Driver/Src/stm32f1xx_hal_pcd.c ****   }
 1438              		.loc 1 622 5 is_stmt 0 view .LVU350
 1439 012a 2046     		mov	r0, r4
 621:Drivers/STM32F1xx_HAL_Driver/Src/stm32f1xx_hal_pcd.c ****     HAL_PCD_SOFCallback(hpcd);
 1440              		.loc 1 621 5 view .LVU351
 1441 012c B2F84430 		ldrh	r3, [r2, #68]
 1442 0130 23F40073 		bic	r3, r3, #512
 1443 0134 1B04     		lsls	r3, r3, #16
 1444 0136 1B0C     		lsrs	r3, r3, #16
 1445 0138 A2F84430 		strh	r3, [r2, #68]	@ movhi
 622:Drivers/STM32F1xx_HAL_Driver/Src/stm32f1xx_hal_pcd.c ****   }
 1446              		.loc 1 622 5 is_stmt 1 view .LVU352
 1447 013c FFF7FEFF 		bl	HAL_PCD_SOFCallback
 1448              	.LVL105:
 1449 0140 92E7     		b	.L130
 1450              	.L171:
 580:Drivers/STM32F1xx_HAL_Driver/Src/stm32f1xx_hal_pcd.c ****     HAL_PCD_ResetCallback(hpcd);
 1451              		.loc 1 580 5 view .LVU353
 1452 0142 2268     		ldr	r2, [r4]
 581:Drivers/STM32F1xx_HAL_Driver/Src/stm32f1xx_hal_pcd.c ****     HAL_PCD_SetAddress(hpcd, 0U);
 1453              		.loc 1 581 5 is_stmt 0 view .LVU354
 1454 0144 2046     		mov	r0, r4
 580:Drivers/STM32F1xx_HAL_Driver/Src/stm32f1xx_hal_pcd.c ****     HAL_PCD_ResetCallback(hpcd);
 1455              		.loc 1 580 5 view .LVU355
 1456 0146 B2F84430 		ldrh	r3, [r2, #68]
 1457 014a 23F48063 		bic	r3, r3, #1024
 1458 014e 1B04     		lsls	r3, r3, #16
 1459 0150 1B0C     		lsrs	r3, r3, #16
 1460 0152 A2F84430 		strh	r3, [r2, #68]	@ movhi
 581:Drivers/STM32F1xx_HAL_Driver/Src/stm32f1xx_hal_pcd.c ****     HAL_PCD_SetAddress(hpcd, 0U);
 1461              		.loc 1 581 5 is_stmt 1 view .LVU356
 1462 0156 FFF7FEFF 		bl	HAL_PCD_ResetCallback
 1463              	.LVL106:
 582:Drivers/STM32F1xx_HAL_Driver/Src/stm32f1xx_hal_pcd.c ****   }
 1464              		.loc 1 582 5 view .LVU357
 1465              	.LBB11:
 1466              	.LBI11:
 847:Drivers/STM32F1xx_HAL_Driver/Src/stm32f1xx_hal_pcd.c **** {
 1467              		.loc 1 847 19 view .LVU358
 1468              	.LBB12:
 849:Drivers/STM32F1xx_HAL_Driver/Src/stm32f1xx_hal_pcd.c ****   hpcd->USB_Address = address;
 1469              		.loc 1 849 3 view .LVU359
 849:Drivers/STM32F1xx_HAL_Driver/Src/stm32f1xx_hal_pcd.c ****   hpcd->USB_Address = address;
 1470              		.loc 1 849 3 view .LVU360
 1471 015a 94F82834 		ldrb	r3, [r4, #1064]	@ zero_extendqisi2
ARM GAS  C:\Users\Eemeli\AppData\Local\Temp\cccfLE7k.s 			page 47


 1472 015e 012B     		cmp	r3, #1
 1473 0160 3FF45FAF 		beq	.L119
 849:Drivers/STM32F1xx_HAL_Driver/Src/stm32f1xx_hal_pcd.c ****   hpcd->USB_Address = address;
 1474              		.loc 1 849 3 view .LVU361
 850:Drivers/STM32F1xx_HAL_Driver/Src/stm32f1xx_hal_pcd.c ****   USB_SetDevAddress(hpcd->Instance, address);
 1475              		.loc 1 850 21 is_stmt 0 view .LVU362
 1476 0164 0025     		movs	r5, #0
 849:Drivers/STM32F1xx_HAL_Driver/Src/stm32f1xx_hal_pcd.c ****   hpcd->USB_Address = address;
 1477              		.loc 1 849 3 view .LVU363
 1478 0166 0123     		movs	r3, #1
 850:Drivers/STM32F1xx_HAL_Driver/Src/stm32f1xx_hal_pcd.c ****   USB_SetDevAddress(hpcd->Instance, address);
 1479              		.loc 1 850 21 view .LVU364
 1480 0168 84F82450 		strb	r5, [r4, #36]
 849:Drivers/STM32F1xx_HAL_Driver/Src/stm32f1xx_hal_pcd.c ****   hpcd->USB_Address = address;
 1481              		.loc 1 849 3 view .LVU365
 1482 016c 84F82834 		strb	r3, [r4, #1064]
 850:Drivers/STM32F1xx_HAL_Driver/Src/stm32f1xx_hal_pcd.c ****   USB_SetDevAddress(hpcd->Instance, address);
 1483              		.loc 1 850 3 is_stmt 1 view .LVU366
 851:Drivers/STM32F1xx_HAL_Driver/Src/stm32f1xx_hal_pcd.c ****   __HAL_UNLOCK(hpcd);
 1484              		.loc 1 851 3 view .LVU367
 1485 0170 2946     		mov	r1, r5
 1486 0172 2068     		ldr	r0, [r4]
 1487 0174 FFF7FEFF 		bl	USB_SetDevAddress
 1488              	.LVL107:
 852:Drivers/STM32F1xx_HAL_Driver/Src/stm32f1xx_hal_pcd.c ****   return HAL_OK;
 1489              		.loc 1 852 3 view .LVU368
 852:Drivers/STM32F1xx_HAL_Driver/Src/stm32f1xx_hal_pcd.c ****   return HAL_OK;
 1490              		.loc 1 852 3 view .LVU369
 1491 0178 84F82854 		strb	r5, [r4, #1064]
 853:Drivers/STM32F1xx_HAL_Driver/Src/stm32f1xx_hal_pcd.c **** }
 1492              		.loc 1 853 3 view .LVU370
 1493 017c 51E7     		b	.L119
 1494              	.LVL108:
 1495              	.L91:
 853:Drivers/STM32F1xx_HAL_Driver/Src/stm32f1xx_hal_pcd.c **** }
 1496              		.loc 1 853 3 is_stmt 0 view .LVU371
 1497              	.LBE12:
 1498              	.LBE11:
 575:Drivers/STM32F1xx_HAL_Driver/Src/stm32f1xx_hal_pcd.c ****   }
 1499              		.loc 1 575 5 is_stmt 1 view .LVU372
 1500              	.LBB13:
 1501              	.LBI13:
 992:Drivers/STM32F1xx_HAL_Driver/Src/stm32f1xx_hal_pcd.c **** 
 993:Drivers/STM32F1xx_HAL_Driver/Src/stm32f1xx_hal_pcd.c **** /**
 994:Drivers/STM32F1xx_HAL_Driver/Src/stm32f1xx_hal_pcd.c ****   * @brief  Set a STALL condition over an endpoint
 995:Drivers/STM32F1xx_HAL_Driver/Src/stm32f1xx_hal_pcd.c ****   * @param  hpcd: PCD handle
 996:Drivers/STM32F1xx_HAL_Driver/Src/stm32f1xx_hal_pcd.c ****   * @param  ep_addr: endpoint address
 997:Drivers/STM32F1xx_HAL_Driver/Src/stm32f1xx_hal_pcd.c ****   * @retval HAL status
 998:Drivers/STM32F1xx_HAL_Driver/Src/stm32f1xx_hal_pcd.c ****   */
 999:Drivers/STM32F1xx_HAL_Driver/Src/stm32f1xx_hal_pcd.c **** HAL_StatusTypeDef HAL_PCD_EP_SetStall(PCD_HandleTypeDef *hpcd, uint8_t ep_addr)
1000:Drivers/STM32F1xx_HAL_Driver/Src/stm32f1xx_hal_pcd.c **** {
1001:Drivers/STM32F1xx_HAL_Driver/Src/stm32f1xx_hal_pcd.c ****   PCD_EPTypeDef *ep = NULL;
1002:Drivers/STM32F1xx_HAL_Driver/Src/stm32f1xx_hal_pcd.c ****   
1003:Drivers/STM32F1xx_HAL_Driver/Src/stm32f1xx_hal_pcd.c ****   if ((0x80U & ep_addr) == 0x80U)
1004:Drivers/STM32F1xx_HAL_Driver/Src/stm32f1xx_hal_pcd.c ****   {
1005:Drivers/STM32F1xx_HAL_Driver/Src/stm32f1xx_hal_pcd.c ****     ep = &hpcd->IN_ep[ep_addr & 0x7FU];
1006:Drivers/STM32F1xx_HAL_Driver/Src/stm32f1xx_hal_pcd.c ****   }
ARM GAS  C:\Users\Eemeli\AppData\Local\Temp\cccfLE7k.s 			page 48


1007:Drivers/STM32F1xx_HAL_Driver/Src/stm32f1xx_hal_pcd.c ****   else
1008:Drivers/STM32F1xx_HAL_Driver/Src/stm32f1xx_hal_pcd.c ****   {
1009:Drivers/STM32F1xx_HAL_Driver/Src/stm32f1xx_hal_pcd.c ****     ep = &hpcd->OUT_ep[ep_addr];
1010:Drivers/STM32F1xx_HAL_Driver/Src/stm32f1xx_hal_pcd.c ****   }
1011:Drivers/STM32F1xx_HAL_Driver/Src/stm32f1xx_hal_pcd.c ****   
1012:Drivers/STM32F1xx_HAL_Driver/Src/stm32f1xx_hal_pcd.c ****   ep->is_stall = 1U;
1013:Drivers/STM32F1xx_HAL_Driver/Src/stm32f1xx_hal_pcd.c ****   ep->num   = ep_addr & 0x7FU;
1014:Drivers/STM32F1xx_HAL_Driver/Src/stm32f1xx_hal_pcd.c ****   ep->is_in = ((ep_addr & 0x80U) == 0x80U);
1015:Drivers/STM32F1xx_HAL_Driver/Src/stm32f1xx_hal_pcd.c ****   
1016:Drivers/STM32F1xx_HAL_Driver/Src/stm32f1xx_hal_pcd.c ****   __HAL_LOCK(hpcd);
1017:Drivers/STM32F1xx_HAL_Driver/Src/stm32f1xx_hal_pcd.c ****   USB_EPSetStall(hpcd->Instance , ep);
1018:Drivers/STM32F1xx_HAL_Driver/Src/stm32f1xx_hal_pcd.c ****   if((ep_addr & 0x7FU) == 0U)
1019:Drivers/STM32F1xx_HAL_Driver/Src/stm32f1xx_hal_pcd.c ****   {
1020:Drivers/STM32F1xx_HAL_Driver/Src/stm32f1xx_hal_pcd.c ****     USB_EP0_OutStart(hpcd->Instance, (uint8_t *)hpcd->Setup);
1021:Drivers/STM32F1xx_HAL_Driver/Src/stm32f1xx_hal_pcd.c ****   }
1022:Drivers/STM32F1xx_HAL_Driver/Src/stm32f1xx_hal_pcd.c ****   __HAL_UNLOCK(hpcd); 
1023:Drivers/STM32F1xx_HAL_Driver/Src/stm32f1xx_hal_pcd.c ****   
1024:Drivers/STM32F1xx_HAL_Driver/Src/stm32f1xx_hal_pcd.c ****   return HAL_OK;
1025:Drivers/STM32F1xx_HAL_Driver/Src/stm32f1xx_hal_pcd.c **** }
1026:Drivers/STM32F1xx_HAL_Driver/Src/stm32f1xx_hal_pcd.c **** 
1027:Drivers/STM32F1xx_HAL_Driver/Src/stm32f1xx_hal_pcd.c **** /**
1028:Drivers/STM32F1xx_HAL_Driver/Src/stm32f1xx_hal_pcd.c ****   * @brief  Clear a STALL condition over in an endpoint
1029:Drivers/STM32F1xx_HAL_Driver/Src/stm32f1xx_hal_pcd.c ****   * @param  hpcd: PCD handle
1030:Drivers/STM32F1xx_HAL_Driver/Src/stm32f1xx_hal_pcd.c ****   * @param  ep_addr: endpoint address
1031:Drivers/STM32F1xx_HAL_Driver/Src/stm32f1xx_hal_pcd.c ****   * @retval HAL status
1032:Drivers/STM32F1xx_HAL_Driver/Src/stm32f1xx_hal_pcd.c ****   */
1033:Drivers/STM32F1xx_HAL_Driver/Src/stm32f1xx_hal_pcd.c **** HAL_StatusTypeDef HAL_PCD_EP_ClrStall(PCD_HandleTypeDef *hpcd, uint8_t ep_addr)
1034:Drivers/STM32F1xx_HAL_Driver/Src/stm32f1xx_hal_pcd.c **** {
1035:Drivers/STM32F1xx_HAL_Driver/Src/stm32f1xx_hal_pcd.c ****   PCD_EPTypeDef *ep = NULL;
1036:Drivers/STM32F1xx_HAL_Driver/Src/stm32f1xx_hal_pcd.c ****   
1037:Drivers/STM32F1xx_HAL_Driver/Src/stm32f1xx_hal_pcd.c ****   if ((0x80U & ep_addr) == 0x80U)
1038:Drivers/STM32F1xx_HAL_Driver/Src/stm32f1xx_hal_pcd.c ****   {
1039:Drivers/STM32F1xx_HAL_Driver/Src/stm32f1xx_hal_pcd.c ****     ep = &hpcd->IN_ep[ep_addr & 0x7FU];
1040:Drivers/STM32F1xx_HAL_Driver/Src/stm32f1xx_hal_pcd.c ****   }
1041:Drivers/STM32F1xx_HAL_Driver/Src/stm32f1xx_hal_pcd.c ****   else
1042:Drivers/STM32F1xx_HAL_Driver/Src/stm32f1xx_hal_pcd.c ****   {
1043:Drivers/STM32F1xx_HAL_Driver/Src/stm32f1xx_hal_pcd.c ****     ep = &hpcd->OUT_ep[ep_addr];
1044:Drivers/STM32F1xx_HAL_Driver/Src/stm32f1xx_hal_pcd.c ****   }
1045:Drivers/STM32F1xx_HAL_Driver/Src/stm32f1xx_hal_pcd.c ****   
1046:Drivers/STM32F1xx_HAL_Driver/Src/stm32f1xx_hal_pcd.c ****   ep->is_stall = 0U;
1047:Drivers/STM32F1xx_HAL_Driver/Src/stm32f1xx_hal_pcd.c ****   ep->num   = ep_addr & 0x7FU;
1048:Drivers/STM32F1xx_HAL_Driver/Src/stm32f1xx_hal_pcd.c ****   ep->is_in = ((ep_addr & 0x80U) == 0x80U);
1049:Drivers/STM32F1xx_HAL_Driver/Src/stm32f1xx_hal_pcd.c ****   
1050:Drivers/STM32F1xx_HAL_Driver/Src/stm32f1xx_hal_pcd.c ****   __HAL_LOCK(hpcd); 
1051:Drivers/STM32F1xx_HAL_Driver/Src/stm32f1xx_hal_pcd.c ****   USB_EPClearStall(hpcd->Instance , ep);
1052:Drivers/STM32F1xx_HAL_Driver/Src/stm32f1xx_hal_pcd.c ****   __HAL_UNLOCK(hpcd); 
1053:Drivers/STM32F1xx_HAL_Driver/Src/stm32f1xx_hal_pcd.c ****   
1054:Drivers/STM32F1xx_HAL_Driver/Src/stm32f1xx_hal_pcd.c ****   return HAL_OK;
1055:Drivers/STM32F1xx_HAL_Driver/Src/stm32f1xx_hal_pcd.c **** }
1056:Drivers/STM32F1xx_HAL_Driver/Src/stm32f1xx_hal_pcd.c **** 
1057:Drivers/STM32F1xx_HAL_Driver/Src/stm32f1xx_hal_pcd.c **** /**
1058:Drivers/STM32F1xx_HAL_Driver/Src/stm32f1xx_hal_pcd.c ****   * @brief  Flush an endpoint
1059:Drivers/STM32F1xx_HAL_Driver/Src/stm32f1xx_hal_pcd.c ****   * @param  hpcd: PCD handle
1060:Drivers/STM32F1xx_HAL_Driver/Src/stm32f1xx_hal_pcd.c ****   * @param  ep_addr: endpoint address
1061:Drivers/STM32F1xx_HAL_Driver/Src/stm32f1xx_hal_pcd.c ****   * @retval HAL status
1062:Drivers/STM32F1xx_HAL_Driver/Src/stm32f1xx_hal_pcd.c ****   */
1063:Drivers/STM32F1xx_HAL_Driver/Src/stm32f1xx_hal_pcd.c **** HAL_StatusTypeDef HAL_PCD_EP_Flush(PCD_HandleTypeDef *hpcd, uint8_t ep_addr)
ARM GAS  C:\Users\Eemeli\AppData\Local\Temp\cccfLE7k.s 			page 49


1064:Drivers/STM32F1xx_HAL_Driver/Src/stm32f1xx_hal_pcd.c **** {
1065:Drivers/STM32F1xx_HAL_Driver/Src/stm32f1xx_hal_pcd.c ****   __HAL_LOCK(hpcd);
1066:Drivers/STM32F1xx_HAL_Driver/Src/stm32f1xx_hal_pcd.c ****   
1067:Drivers/STM32F1xx_HAL_Driver/Src/stm32f1xx_hal_pcd.c ****   if ((ep_addr & 0x80U) == 0x80U)
1068:Drivers/STM32F1xx_HAL_Driver/Src/stm32f1xx_hal_pcd.c ****   {
1069:Drivers/STM32F1xx_HAL_Driver/Src/stm32f1xx_hal_pcd.c ****     USB_FlushTxFifo(hpcd->Instance, ep_addr & 0x7FU);
1070:Drivers/STM32F1xx_HAL_Driver/Src/stm32f1xx_hal_pcd.c ****   }
1071:Drivers/STM32F1xx_HAL_Driver/Src/stm32f1xx_hal_pcd.c ****   else
1072:Drivers/STM32F1xx_HAL_Driver/Src/stm32f1xx_hal_pcd.c ****   {
1073:Drivers/STM32F1xx_HAL_Driver/Src/stm32f1xx_hal_pcd.c ****     USB_FlushRxFifo(hpcd->Instance);
1074:Drivers/STM32F1xx_HAL_Driver/Src/stm32f1xx_hal_pcd.c ****   }
1075:Drivers/STM32F1xx_HAL_Driver/Src/stm32f1xx_hal_pcd.c ****   
1076:Drivers/STM32F1xx_HAL_Driver/Src/stm32f1xx_hal_pcd.c ****   __HAL_UNLOCK(hpcd); 
1077:Drivers/STM32F1xx_HAL_Driver/Src/stm32f1xx_hal_pcd.c ****   
1078:Drivers/STM32F1xx_HAL_Driver/Src/stm32f1xx_hal_pcd.c ****   return HAL_OK;
1079:Drivers/STM32F1xx_HAL_Driver/Src/stm32f1xx_hal_pcd.c **** }
1080:Drivers/STM32F1xx_HAL_Driver/Src/stm32f1xx_hal_pcd.c **** 
1081:Drivers/STM32F1xx_HAL_Driver/Src/stm32f1xx_hal_pcd.c **** /**
1082:Drivers/STM32F1xx_HAL_Driver/Src/stm32f1xx_hal_pcd.c ****   * @brief  HAL_PCD_ActivateRemoteWakeup : active remote wakeup signalling
1083:Drivers/STM32F1xx_HAL_Driver/Src/stm32f1xx_hal_pcd.c ****   * @param  hpcd: PCD handle
1084:Drivers/STM32F1xx_HAL_Driver/Src/stm32f1xx_hal_pcd.c ****   * @retval HAL status
1085:Drivers/STM32F1xx_HAL_Driver/Src/stm32f1xx_hal_pcd.c ****   */
1086:Drivers/STM32F1xx_HAL_Driver/Src/stm32f1xx_hal_pcd.c **** HAL_StatusTypeDef HAL_PCD_ActivateRemoteWakeup(PCD_HandleTypeDef *hpcd)
1087:Drivers/STM32F1xx_HAL_Driver/Src/stm32f1xx_hal_pcd.c **** {
1088:Drivers/STM32F1xx_HAL_Driver/Src/stm32f1xx_hal_pcd.c ****   return(USB_ActivateRemoteWakeup(hpcd->Instance));
1089:Drivers/STM32F1xx_HAL_Driver/Src/stm32f1xx_hal_pcd.c **** }
1090:Drivers/STM32F1xx_HAL_Driver/Src/stm32f1xx_hal_pcd.c **** 
1091:Drivers/STM32F1xx_HAL_Driver/Src/stm32f1xx_hal_pcd.c **** /**
1092:Drivers/STM32F1xx_HAL_Driver/Src/stm32f1xx_hal_pcd.c ****   * @brief  HAL_PCD_DeActivateRemoteWakeup : de-active remote wakeup signalling
1093:Drivers/STM32F1xx_HAL_Driver/Src/stm32f1xx_hal_pcd.c ****   * @param  hpcd: PCD handle
1094:Drivers/STM32F1xx_HAL_Driver/Src/stm32f1xx_hal_pcd.c ****   * @retval HAL status
1095:Drivers/STM32F1xx_HAL_Driver/Src/stm32f1xx_hal_pcd.c ****   */
1096:Drivers/STM32F1xx_HAL_Driver/Src/stm32f1xx_hal_pcd.c **** HAL_StatusTypeDef HAL_PCD_DeActivateRemoteWakeup(PCD_HandleTypeDef *hpcd)
1097:Drivers/STM32F1xx_HAL_Driver/Src/stm32f1xx_hal_pcd.c **** {
1098:Drivers/STM32F1xx_HAL_Driver/Src/stm32f1xx_hal_pcd.c ****   return(USB_DeActivateRemoteWakeup(hpcd->Instance));
1099:Drivers/STM32F1xx_HAL_Driver/Src/stm32f1xx_hal_pcd.c **** }
1100:Drivers/STM32F1xx_HAL_Driver/Src/stm32f1xx_hal_pcd.c **** /**
1101:Drivers/STM32F1xx_HAL_Driver/Src/stm32f1xx_hal_pcd.c ****   * @}
1102:Drivers/STM32F1xx_HAL_Driver/Src/stm32f1xx_hal_pcd.c ****   */
1103:Drivers/STM32F1xx_HAL_Driver/Src/stm32f1xx_hal_pcd.c ****   
1104:Drivers/STM32F1xx_HAL_Driver/Src/stm32f1xx_hal_pcd.c **** /** @defgroup PCD_Exported_Functions_Group4 Peripheral State functions 
1105:Drivers/STM32F1xx_HAL_Driver/Src/stm32f1xx_hal_pcd.c ****  *  @brief   Peripheral State functions
1106:Drivers/STM32F1xx_HAL_Driver/Src/stm32f1xx_hal_pcd.c ****  *
1107:Drivers/STM32F1xx_HAL_Driver/Src/stm32f1xx_hal_pcd.c **** @verbatim
1108:Drivers/STM32F1xx_HAL_Driver/Src/stm32f1xx_hal_pcd.c ****  ===============================================================================
1109:Drivers/STM32F1xx_HAL_Driver/Src/stm32f1xx_hal_pcd.c ****                       ##### Peripheral State functions #####
1110:Drivers/STM32F1xx_HAL_Driver/Src/stm32f1xx_hal_pcd.c ****  ===============================================================================
1111:Drivers/STM32F1xx_HAL_Driver/Src/stm32f1xx_hal_pcd.c ****     [..]
1112:Drivers/STM32F1xx_HAL_Driver/Src/stm32f1xx_hal_pcd.c ****     This subsection permits to get in run-time the status of the peripheral 
1113:Drivers/STM32F1xx_HAL_Driver/Src/stm32f1xx_hal_pcd.c ****     and the data flow.
1114:Drivers/STM32F1xx_HAL_Driver/Src/stm32f1xx_hal_pcd.c **** 
1115:Drivers/STM32F1xx_HAL_Driver/Src/stm32f1xx_hal_pcd.c **** @endverbatim
1116:Drivers/STM32F1xx_HAL_Driver/Src/stm32f1xx_hal_pcd.c ****   * @{
1117:Drivers/STM32F1xx_HAL_Driver/Src/stm32f1xx_hal_pcd.c ****   */
1118:Drivers/STM32F1xx_HAL_Driver/Src/stm32f1xx_hal_pcd.c **** 
1119:Drivers/STM32F1xx_HAL_Driver/Src/stm32f1xx_hal_pcd.c **** /**
1120:Drivers/STM32F1xx_HAL_Driver/Src/stm32f1xx_hal_pcd.c ****   * @brief  Return the PCD state
ARM GAS  C:\Users\Eemeli\AppData\Local\Temp\cccfLE7k.s 			page 50


1121:Drivers/STM32F1xx_HAL_Driver/Src/stm32f1xx_hal_pcd.c ****   * @param  hpcd: PCD handle
1122:Drivers/STM32F1xx_HAL_Driver/Src/stm32f1xx_hal_pcd.c ****   * @retval HAL state
1123:Drivers/STM32F1xx_HAL_Driver/Src/stm32f1xx_hal_pcd.c ****   */
1124:Drivers/STM32F1xx_HAL_Driver/Src/stm32f1xx_hal_pcd.c **** PCD_StateTypeDef HAL_PCD_GetState(PCD_HandleTypeDef *hpcd)
1125:Drivers/STM32F1xx_HAL_Driver/Src/stm32f1xx_hal_pcd.c **** {
1126:Drivers/STM32F1xx_HAL_Driver/Src/stm32f1xx_hal_pcd.c ****   return hpcd->State;
1127:Drivers/STM32F1xx_HAL_Driver/Src/stm32f1xx_hal_pcd.c **** }
1128:Drivers/STM32F1xx_HAL_Driver/Src/stm32f1xx_hal_pcd.c **** 
1129:Drivers/STM32F1xx_HAL_Driver/Src/stm32f1xx_hal_pcd.c **** /**
1130:Drivers/STM32F1xx_HAL_Driver/Src/stm32f1xx_hal_pcd.c ****   * @}
1131:Drivers/STM32F1xx_HAL_Driver/Src/stm32f1xx_hal_pcd.c ****   */
1132:Drivers/STM32F1xx_HAL_Driver/Src/stm32f1xx_hal_pcd.c **** 
1133:Drivers/STM32F1xx_HAL_Driver/Src/stm32f1xx_hal_pcd.c **** /**
1134:Drivers/STM32F1xx_HAL_Driver/Src/stm32f1xx_hal_pcd.c ****   * @}
1135:Drivers/STM32F1xx_HAL_Driver/Src/stm32f1xx_hal_pcd.c ****   */
1136:Drivers/STM32F1xx_HAL_Driver/Src/stm32f1xx_hal_pcd.c **** 
1137:Drivers/STM32F1xx_HAL_Driver/Src/stm32f1xx_hal_pcd.c **** /** @addtogroup PCD_Private_Functions
1138:Drivers/STM32F1xx_HAL_Driver/Src/stm32f1xx_hal_pcd.c ****   * @{
1139:Drivers/STM32F1xx_HAL_Driver/Src/stm32f1xx_hal_pcd.c ****   */
1140:Drivers/STM32F1xx_HAL_Driver/Src/stm32f1xx_hal_pcd.c **** #if defined (USB_OTG_FS)
1141:Drivers/STM32F1xx_HAL_Driver/Src/stm32f1xx_hal_pcd.c **** /**
1142:Drivers/STM32F1xx_HAL_Driver/Src/stm32f1xx_hal_pcd.c ****   * @brief  DCD_WriteEmptyTxFifo
1143:Drivers/STM32F1xx_HAL_Driver/Src/stm32f1xx_hal_pcd.c ****   *         check FIFO for the next packet to be loaded
1144:Drivers/STM32F1xx_HAL_Driver/Src/stm32f1xx_hal_pcd.c ****   * @param  hpcd: PCD handle
1145:Drivers/STM32F1xx_HAL_Driver/Src/stm32f1xx_hal_pcd.c ****   * @param  epnum : endpoint number
1146:Drivers/STM32F1xx_HAL_Driver/Src/stm32f1xx_hal_pcd.c ****   *          This parameter can be a value from 0 to 15  
1147:Drivers/STM32F1xx_HAL_Driver/Src/stm32f1xx_hal_pcd.c ****   * @retval HAL status
1148:Drivers/STM32F1xx_HAL_Driver/Src/stm32f1xx_hal_pcd.c ****   */
1149:Drivers/STM32F1xx_HAL_Driver/Src/stm32f1xx_hal_pcd.c **** static HAL_StatusTypeDef PCD_WriteEmptyTxFifo(PCD_HandleTypeDef *hpcd, uint32_t epnum)
1150:Drivers/STM32F1xx_HAL_Driver/Src/stm32f1xx_hal_pcd.c **** {
1151:Drivers/STM32F1xx_HAL_Driver/Src/stm32f1xx_hal_pcd.c ****   USB_OTG_GlobalTypeDef *USBx = hpcd->Instance;  
1152:Drivers/STM32F1xx_HAL_Driver/Src/stm32f1xx_hal_pcd.c ****   USB_OTG_EPTypeDef *ep = NULL;
1153:Drivers/STM32F1xx_HAL_Driver/Src/stm32f1xx_hal_pcd.c ****   int32_t len = 0;
1154:Drivers/STM32F1xx_HAL_Driver/Src/stm32f1xx_hal_pcd.c ****   uint32_t len32b = 0U;
1155:Drivers/STM32F1xx_HAL_Driver/Src/stm32f1xx_hal_pcd.c ****   uint32_t fifoemptymsk = 0U;
1156:Drivers/STM32F1xx_HAL_Driver/Src/stm32f1xx_hal_pcd.c ****   
1157:Drivers/STM32F1xx_HAL_Driver/Src/stm32f1xx_hal_pcd.c ****   ep = &hpcd->IN_ep[epnum];
1158:Drivers/STM32F1xx_HAL_Driver/Src/stm32f1xx_hal_pcd.c ****   len = ep->xfer_len - ep->xfer_count;
1159:Drivers/STM32F1xx_HAL_Driver/Src/stm32f1xx_hal_pcd.c ****   
1160:Drivers/STM32F1xx_HAL_Driver/Src/stm32f1xx_hal_pcd.c ****   if (len > ep->maxpacket)
1161:Drivers/STM32F1xx_HAL_Driver/Src/stm32f1xx_hal_pcd.c ****   {
1162:Drivers/STM32F1xx_HAL_Driver/Src/stm32f1xx_hal_pcd.c ****     len = ep->maxpacket;
1163:Drivers/STM32F1xx_HAL_Driver/Src/stm32f1xx_hal_pcd.c ****   }
1164:Drivers/STM32F1xx_HAL_Driver/Src/stm32f1xx_hal_pcd.c ****   
1165:Drivers/STM32F1xx_HAL_Driver/Src/stm32f1xx_hal_pcd.c ****   len32b = (len + 3U) / 4U;
1166:Drivers/STM32F1xx_HAL_Driver/Src/stm32f1xx_hal_pcd.c ****   
1167:Drivers/STM32F1xx_HAL_Driver/Src/stm32f1xx_hal_pcd.c ****   while ((USBx_INEP(epnum)->DTXFSTS & USB_OTG_DTXFSTS_INEPTFSAV) > len32b &&
1168:Drivers/STM32F1xx_HAL_Driver/Src/stm32f1xx_hal_pcd.c ****          ep->xfer_count < ep->xfer_len &&
1169:Drivers/STM32F1xx_HAL_Driver/Src/stm32f1xx_hal_pcd.c ****          ep->xfer_len != 0U)
1170:Drivers/STM32F1xx_HAL_Driver/Src/stm32f1xx_hal_pcd.c ****   {
1171:Drivers/STM32F1xx_HAL_Driver/Src/stm32f1xx_hal_pcd.c ****     /* Write the FIFO */
1172:Drivers/STM32F1xx_HAL_Driver/Src/stm32f1xx_hal_pcd.c ****     len = ep->xfer_len - ep->xfer_count;
1173:Drivers/STM32F1xx_HAL_Driver/Src/stm32f1xx_hal_pcd.c ****     
1174:Drivers/STM32F1xx_HAL_Driver/Src/stm32f1xx_hal_pcd.c ****     if ((uint32_t)len > ep->maxpacket)
1175:Drivers/STM32F1xx_HAL_Driver/Src/stm32f1xx_hal_pcd.c ****     {
1176:Drivers/STM32F1xx_HAL_Driver/Src/stm32f1xx_hal_pcd.c ****       len = ep->maxpacket;
1177:Drivers/STM32F1xx_HAL_Driver/Src/stm32f1xx_hal_pcd.c ****     }
ARM GAS  C:\Users\Eemeli\AppData\Local\Temp\cccfLE7k.s 			page 51


1178:Drivers/STM32F1xx_HAL_Driver/Src/stm32f1xx_hal_pcd.c ****     len32b = (len + 3U) / 4U;
1179:Drivers/STM32F1xx_HAL_Driver/Src/stm32f1xx_hal_pcd.c ****     
1180:Drivers/STM32F1xx_HAL_Driver/Src/stm32f1xx_hal_pcd.c ****     USB_WritePacket(USBx, ep->xfer_buff, epnum, len);
1181:Drivers/STM32F1xx_HAL_Driver/Src/stm32f1xx_hal_pcd.c ****     
1182:Drivers/STM32F1xx_HAL_Driver/Src/stm32f1xx_hal_pcd.c ****     ep->xfer_buff  += len;
1183:Drivers/STM32F1xx_HAL_Driver/Src/stm32f1xx_hal_pcd.c ****     ep->xfer_count += len;
1184:Drivers/STM32F1xx_HAL_Driver/Src/stm32f1xx_hal_pcd.c ****   }
1185:Drivers/STM32F1xx_HAL_Driver/Src/stm32f1xx_hal_pcd.c ****   
1186:Drivers/STM32F1xx_HAL_Driver/Src/stm32f1xx_hal_pcd.c ****   if(len <= 0)
1187:Drivers/STM32F1xx_HAL_Driver/Src/stm32f1xx_hal_pcd.c ****   {
1188:Drivers/STM32F1xx_HAL_Driver/Src/stm32f1xx_hal_pcd.c ****     fifoemptymsk = 0x01U << epnum;
1189:Drivers/STM32F1xx_HAL_Driver/Src/stm32f1xx_hal_pcd.c ****     USBx_DEVICE->DIEPEMPMSK &= ~fifoemptymsk;
1190:Drivers/STM32F1xx_HAL_Driver/Src/stm32f1xx_hal_pcd.c ****     
1191:Drivers/STM32F1xx_HAL_Driver/Src/stm32f1xx_hal_pcd.c ****   }
1192:Drivers/STM32F1xx_HAL_Driver/Src/stm32f1xx_hal_pcd.c ****   
1193:Drivers/STM32F1xx_HAL_Driver/Src/stm32f1xx_hal_pcd.c ****   return HAL_OK;
1194:Drivers/STM32F1xx_HAL_Driver/Src/stm32f1xx_hal_pcd.c **** }
1195:Drivers/STM32F1xx_HAL_Driver/Src/stm32f1xx_hal_pcd.c **** #endif /* USB_OTG_FS */
1196:Drivers/STM32F1xx_HAL_Driver/Src/stm32f1xx_hal_pcd.c **** 
1197:Drivers/STM32F1xx_HAL_Driver/Src/stm32f1xx_hal_pcd.c **** #if defined (USB)
1198:Drivers/STM32F1xx_HAL_Driver/Src/stm32f1xx_hal_pcd.c **** /**
1199:Drivers/STM32F1xx_HAL_Driver/Src/stm32f1xx_hal_pcd.c ****   * @brief  This function handles PCD Endpoint interrupt request.
1200:Drivers/STM32F1xx_HAL_Driver/Src/stm32f1xx_hal_pcd.c ****   * @param  hpcd: PCD handle
1201:Drivers/STM32F1xx_HAL_Driver/Src/stm32f1xx_hal_pcd.c ****   * @retval HAL status
1202:Drivers/STM32F1xx_HAL_Driver/Src/stm32f1xx_hal_pcd.c ****   */
1203:Drivers/STM32F1xx_HAL_Driver/Src/stm32f1xx_hal_pcd.c **** static HAL_StatusTypeDef PCD_EP_ISR_Handler(PCD_HandleTypeDef *hpcd)
 1502              		.loc 1 1203 26 view .LVU373
 1503              	.LBB14:
1204:Drivers/STM32F1xx_HAL_Driver/Src/stm32f1xx_hal_pcd.c **** {
1205:Drivers/STM32F1xx_HAL_Driver/Src/stm32f1xx_hal_pcd.c ****   PCD_EPTypeDef *ep = NULL;
 1504              		.loc 1 1205 3 view .LVU374
1206:Drivers/STM32F1xx_HAL_Driver/Src/stm32f1xx_hal_pcd.c ****   uint16_t count = 0;
 1505              		.loc 1 1206 3 view .LVU375
1207:Drivers/STM32F1xx_HAL_Driver/Src/stm32f1xx_hal_pcd.c ****   uint8_t epindex = 0;
 1506              		.loc 1 1207 3 view .LVU376
1208:Drivers/STM32F1xx_HAL_Driver/Src/stm32f1xx_hal_pcd.c ****   __IO uint16_t wIstr = 0;  
 1507              		.loc 1 1208 3 view .LVU377
 1508              		.loc 1 1208 17 is_stmt 0 view .LVU378
 1509 017e 0023     		movs	r3, #0
 1510 0180 2268     		ldr	r2, [r4]
1209:Drivers/STM32F1xx_HAL_Driver/Src/stm32f1xx_hal_pcd.c ****   __IO uint16_t wEPVal = 0;
1210:Drivers/STM32F1xx_HAL_Driver/Src/stm32f1xx_hal_pcd.c ****   
1211:Drivers/STM32F1xx_HAL_Driver/Src/stm32f1xx_hal_pcd.c ****   /* stay in loop while pending interrupts */
1212:Drivers/STM32F1xx_HAL_Driver/Src/stm32f1xx_hal_pcd.c ****   while (((wIstr = hpcd->Instance->ISTR) & USB_ISTR_CTR) != 0)
1213:Drivers/STM32F1xx_HAL_Driver/Src/stm32f1xx_hal_pcd.c ****   {
1214:Drivers/STM32F1xx_HAL_Driver/Src/stm32f1xx_hal_pcd.c ****     /* extract highest priority endpoint number */
1215:Drivers/STM32F1xx_HAL_Driver/Src/stm32f1xx_hal_pcd.c ****     epindex = (uint8_t)(wIstr & USB_ISTR_EP_ID);
1216:Drivers/STM32F1xx_HAL_Driver/Src/stm32f1xx_hal_pcd.c ****     
1217:Drivers/STM32F1xx_HAL_Driver/Src/stm32f1xx_hal_pcd.c ****     if (epindex == 0)
1218:Drivers/STM32F1xx_HAL_Driver/Src/stm32f1xx_hal_pcd.c ****     {
1219:Drivers/STM32F1xx_HAL_Driver/Src/stm32f1xx_hal_pcd.c ****       /* Decode and service control endpoint interrupt */
1220:Drivers/STM32F1xx_HAL_Driver/Src/stm32f1xx_hal_pcd.c ****       
1221:Drivers/STM32F1xx_HAL_Driver/Src/stm32f1xx_hal_pcd.c ****       /* DIR bit = origin of the interrupt */   
1222:Drivers/STM32F1xx_HAL_Driver/Src/stm32f1xx_hal_pcd.c ****       if ((wIstr & USB_ISTR_DIR) == 0)
1223:Drivers/STM32F1xx_HAL_Driver/Src/stm32f1xx_hal_pcd.c ****       {
1224:Drivers/STM32F1xx_HAL_Driver/Src/stm32f1xx_hal_pcd.c ****         /* DIR = 0 */
1225:Drivers/STM32F1xx_HAL_Driver/Src/stm32f1xx_hal_pcd.c ****         
ARM GAS  C:\Users\Eemeli\AppData\Local\Temp\cccfLE7k.s 			page 52


1226:Drivers/STM32F1xx_HAL_Driver/Src/stm32f1xx_hal_pcd.c ****         /* DIR = 0      => IN  int */
1227:Drivers/STM32F1xx_HAL_Driver/Src/stm32f1xx_hal_pcd.c ****         /* DIR = 0 implies that (EP_CTR_TX = 1) always  */
1228:Drivers/STM32F1xx_HAL_Driver/Src/stm32f1xx_hal_pcd.c ****         PCD_CLEAR_TX_EP_CTR(hpcd->Instance, PCD_ENDP0);
1229:Drivers/STM32F1xx_HAL_Driver/Src/stm32f1xx_hal_pcd.c ****         ep = &hpcd->IN_ep[0];
1230:Drivers/STM32F1xx_HAL_Driver/Src/stm32f1xx_hal_pcd.c ****         
1231:Drivers/STM32F1xx_HAL_Driver/Src/stm32f1xx_hal_pcd.c ****         ep->xfer_count = PCD_GET_EP_TX_CNT(hpcd->Instance, ep->num);
1232:Drivers/STM32F1xx_HAL_Driver/Src/stm32f1xx_hal_pcd.c ****         ep->xfer_buff += ep->xfer_count;
1233:Drivers/STM32F1xx_HAL_Driver/Src/stm32f1xx_hal_pcd.c ****  
1234:Drivers/STM32F1xx_HAL_Driver/Src/stm32f1xx_hal_pcd.c ****         /* TX COMPLETE */
1235:Drivers/STM32F1xx_HAL_Driver/Src/stm32f1xx_hal_pcd.c ****         HAL_PCD_DataInStageCallback(hpcd, 0U);
1236:Drivers/STM32F1xx_HAL_Driver/Src/stm32f1xx_hal_pcd.c ****         
1237:Drivers/STM32F1xx_HAL_Driver/Src/stm32f1xx_hal_pcd.c ****         
1238:Drivers/STM32F1xx_HAL_Driver/Src/stm32f1xx_hal_pcd.c ****         if((hpcd->USB_Address > 0U)&& ( ep->xfer_len == 0U))
1239:Drivers/STM32F1xx_HAL_Driver/Src/stm32f1xx_hal_pcd.c ****         {
1240:Drivers/STM32F1xx_HAL_Driver/Src/stm32f1xx_hal_pcd.c ****           hpcd->Instance->DADDR = (hpcd->USB_Address | USB_DADDR_EF);
1241:Drivers/STM32F1xx_HAL_Driver/Src/stm32f1xx_hal_pcd.c ****           hpcd->USB_Address = 0U;
1242:Drivers/STM32F1xx_HAL_Driver/Src/stm32f1xx_hal_pcd.c ****         }
1243:Drivers/STM32F1xx_HAL_Driver/Src/stm32f1xx_hal_pcd.c ****         
1244:Drivers/STM32F1xx_HAL_Driver/Src/stm32f1xx_hal_pcd.c ****       }
1245:Drivers/STM32F1xx_HAL_Driver/Src/stm32f1xx_hal_pcd.c ****       else
1246:Drivers/STM32F1xx_HAL_Driver/Src/stm32f1xx_hal_pcd.c ****       {
1247:Drivers/STM32F1xx_HAL_Driver/Src/stm32f1xx_hal_pcd.c ****         /* DIR = 1 */
1248:Drivers/STM32F1xx_HAL_Driver/Src/stm32f1xx_hal_pcd.c ****         
1249:Drivers/STM32F1xx_HAL_Driver/Src/stm32f1xx_hal_pcd.c ****         /* DIR = 1 & CTR_RX       => SETUP or OUT int */
1250:Drivers/STM32F1xx_HAL_Driver/Src/stm32f1xx_hal_pcd.c ****         /* DIR = 1 & (CTR_TX | CTR_RX) => 2 int pending */
1251:Drivers/STM32F1xx_HAL_Driver/Src/stm32f1xx_hal_pcd.c ****         ep = &hpcd->OUT_ep[0U];
1252:Drivers/STM32F1xx_HAL_Driver/Src/stm32f1xx_hal_pcd.c ****         wEPVal = PCD_GET_ENDPOINT(hpcd->Instance, PCD_ENDP0);
1253:Drivers/STM32F1xx_HAL_Driver/Src/stm32f1xx_hal_pcd.c ****         
1254:Drivers/STM32F1xx_HAL_Driver/Src/stm32f1xx_hal_pcd.c ****         if ((wEPVal & USB_EP_SETUP) != 0U)
1255:Drivers/STM32F1xx_HAL_Driver/Src/stm32f1xx_hal_pcd.c ****         {
1256:Drivers/STM32F1xx_HAL_Driver/Src/stm32f1xx_hal_pcd.c ****           /* Get SETUP Packet*/
1257:Drivers/STM32F1xx_HAL_Driver/Src/stm32f1xx_hal_pcd.c ****           ep->xfer_count = PCD_GET_EP_RX_CNT(hpcd->Instance, ep->num);
1258:Drivers/STM32F1xx_HAL_Driver/Src/stm32f1xx_hal_pcd.c ****           USB_ReadPMA(hpcd->Instance, (uint8_t*)hpcd->Setup ,ep->pmaadress , ep->xfer_count);      
1259:Drivers/STM32F1xx_HAL_Driver/Src/stm32f1xx_hal_pcd.c ****           /* SETUP bit kept frozen while CTR_RX = 1*/ 
1260:Drivers/STM32F1xx_HAL_Driver/Src/stm32f1xx_hal_pcd.c ****           PCD_CLEAR_RX_EP_CTR(hpcd->Instance, PCD_ENDP0); 
1261:Drivers/STM32F1xx_HAL_Driver/Src/stm32f1xx_hal_pcd.c ****           
1262:Drivers/STM32F1xx_HAL_Driver/Src/stm32f1xx_hal_pcd.c ****           /* Process SETUP Packet*/
1263:Drivers/STM32F1xx_HAL_Driver/Src/stm32f1xx_hal_pcd.c ****           HAL_PCD_SetupStageCallback(hpcd);
1264:Drivers/STM32F1xx_HAL_Driver/Src/stm32f1xx_hal_pcd.c ****         }
1265:Drivers/STM32F1xx_HAL_Driver/Src/stm32f1xx_hal_pcd.c ****         
1266:Drivers/STM32F1xx_HAL_Driver/Src/stm32f1xx_hal_pcd.c ****         else if ((wEPVal & USB_EP_CTR_RX) != 0U)
1267:Drivers/STM32F1xx_HAL_Driver/Src/stm32f1xx_hal_pcd.c ****         {
1268:Drivers/STM32F1xx_HAL_Driver/Src/stm32f1xx_hal_pcd.c ****           PCD_CLEAR_RX_EP_CTR(hpcd->Instance, PCD_ENDP0);
1269:Drivers/STM32F1xx_HAL_Driver/Src/stm32f1xx_hal_pcd.c ****           /* Get Control Data OUT Packet*/
1270:Drivers/STM32F1xx_HAL_Driver/Src/stm32f1xx_hal_pcd.c ****           ep->xfer_count = PCD_GET_EP_RX_CNT(hpcd->Instance, ep->num);
1271:Drivers/STM32F1xx_HAL_Driver/Src/stm32f1xx_hal_pcd.c ****           
1272:Drivers/STM32F1xx_HAL_Driver/Src/stm32f1xx_hal_pcd.c ****           if (ep->xfer_count != 0U)
1273:Drivers/STM32F1xx_HAL_Driver/Src/stm32f1xx_hal_pcd.c ****           {
1274:Drivers/STM32F1xx_HAL_Driver/Src/stm32f1xx_hal_pcd.c ****             USB_ReadPMA(hpcd->Instance, ep->xfer_buff, ep->pmaadress, ep->xfer_count);
1275:Drivers/STM32F1xx_HAL_Driver/Src/stm32f1xx_hal_pcd.c ****             ep->xfer_buff+=ep->xfer_count;
1276:Drivers/STM32F1xx_HAL_Driver/Src/stm32f1xx_hal_pcd.c ****           }
1277:Drivers/STM32F1xx_HAL_Driver/Src/stm32f1xx_hal_pcd.c ****           
1278:Drivers/STM32F1xx_HAL_Driver/Src/stm32f1xx_hal_pcd.c ****           /* Process Control Data OUT Packet*/
1279:Drivers/STM32F1xx_HAL_Driver/Src/stm32f1xx_hal_pcd.c ****            HAL_PCD_DataOutStageCallback(hpcd, 0U);
1280:Drivers/STM32F1xx_HAL_Driver/Src/stm32f1xx_hal_pcd.c ****           
1281:Drivers/STM32F1xx_HAL_Driver/Src/stm32f1xx_hal_pcd.c ****           PCD_SET_EP_RX_CNT(hpcd->Instance, PCD_ENDP0, ep->maxpacket);
1282:Drivers/STM32F1xx_HAL_Driver/Src/stm32f1xx_hal_pcd.c ****           PCD_SET_EP_RX_STATUS(hpcd->Instance, PCD_ENDP0, USB_EP_RX_VALID);
ARM GAS  C:\Users\Eemeli\AppData\Local\Temp\cccfLE7k.s 			page 53


1283:Drivers/STM32F1xx_HAL_Driver/Src/stm32f1xx_hal_pcd.c ****         }
1284:Drivers/STM32F1xx_HAL_Driver/Src/stm32f1xx_hal_pcd.c ****       }
1285:Drivers/STM32F1xx_HAL_Driver/Src/stm32f1xx_hal_pcd.c ****     }
1286:Drivers/STM32F1xx_HAL_Driver/Src/stm32f1xx_hal_pcd.c ****     else
1287:Drivers/STM32F1xx_HAL_Driver/Src/stm32f1xx_hal_pcd.c ****     {
1288:Drivers/STM32F1xx_HAL_Driver/Src/stm32f1xx_hal_pcd.c ****       /* Decode and service non control endpoints interrupt  */
1289:Drivers/STM32F1xx_HAL_Driver/Src/stm32f1xx_hal_pcd.c **** 	  
1290:Drivers/STM32F1xx_HAL_Driver/Src/stm32f1xx_hal_pcd.c ****       /* process related endpoint register */
1291:Drivers/STM32F1xx_HAL_Driver/Src/stm32f1xx_hal_pcd.c ****       wEPVal = PCD_GET_ENDPOINT(hpcd->Instance, epindex);
1292:Drivers/STM32F1xx_HAL_Driver/Src/stm32f1xx_hal_pcd.c ****       if ((wEPVal & USB_EP_CTR_RX) != 0U)
1293:Drivers/STM32F1xx_HAL_Driver/Src/stm32f1xx_hal_pcd.c ****       {  
1294:Drivers/STM32F1xx_HAL_Driver/Src/stm32f1xx_hal_pcd.c ****         /* clear int flag */
1295:Drivers/STM32F1xx_HAL_Driver/Src/stm32f1xx_hal_pcd.c ****         PCD_CLEAR_RX_EP_CTR(hpcd->Instance, epindex);
1296:Drivers/STM32F1xx_HAL_Driver/Src/stm32f1xx_hal_pcd.c ****         ep = &hpcd->OUT_ep[epindex];
1297:Drivers/STM32F1xx_HAL_Driver/Src/stm32f1xx_hal_pcd.c ****         
1298:Drivers/STM32F1xx_HAL_Driver/Src/stm32f1xx_hal_pcd.c ****         /* OUT double Buffering*/
1299:Drivers/STM32F1xx_HAL_Driver/Src/stm32f1xx_hal_pcd.c ****         if (ep->doublebuffer == 0U)
1300:Drivers/STM32F1xx_HAL_Driver/Src/stm32f1xx_hal_pcd.c ****         {
1301:Drivers/STM32F1xx_HAL_Driver/Src/stm32f1xx_hal_pcd.c ****           count = PCD_GET_EP_RX_CNT(hpcd->Instance, ep->num);
1302:Drivers/STM32F1xx_HAL_Driver/Src/stm32f1xx_hal_pcd.c ****           if (count != 0U)
1303:Drivers/STM32F1xx_HAL_Driver/Src/stm32f1xx_hal_pcd.c ****           {
1304:Drivers/STM32F1xx_HAL_Driver/Src/stm32f1xx_hal_pcd.c ****             USB_ReadPMA(hpcd->Instance, ep->xfer_buff, ep->pmaadress, count);
1305:Drivers/STM32F1xx_HAL_Driver/Src/stm32f1xx_hal_pcd.c ****           }
1306:Drivers/STM32F1xx_HAL_Driver/Src/stm32f1xx_hal_pcd.c ****         }
1307:Drivers/STM32F1xx_HAL_Driver/Src/stm32f1xx_hal_pcd.c ****         else
1308:Drivers/STM32F1xx_HAL_Driver/Src/stm32f1xx_hal_pcd.c ****         {
1309:Drivers/STM32F1xx_HAL_Driver/Src/stm32f1xx_hal_pcd.c ****           if (PCD_GET_ENDPOINT(hpcd->Instance, ep->num) & USB_EP_DTOG_RX)
1310:Drivers/STM32F1xx_HAL_Driver/Src/stm32f1xx_hal_pcd.c ****           {
1311:Drivers/STM32F1xx_HAL_Driver/Src/stm32f1xx_hal_pcd.c ****             /*read from endpoint BUF0Addr buffer*/
1312:Drivers/STM32F1xx_HAL_Driver/Src/stm32f1xx_hal_pcd.c ****             count = PCD_GET_EP_DBUF0_CNT(hpcd->Instance, ep->num);
1313:Drivers/STM32F1xx_HAL_Driver/Src/stm32f1xx_hal_pcd.c ****             if (count != 0U)
1314:Drivers/STM32F1xx_HAL_Driver/Src/stm32f1xx_hal_pcd.c ****             {
1315:Drivers/STM32F1xx_HAL_Driver/Src/stm32f1xx_hal_pcd.c ****               USB_ReadPMA(hpcd->Instance, ep->xfer_buff, ep->pmaaddr0, count);
1316:Drivers/STM32F1xx_HAL_Driver/Src/stm32f1xx_hal_pcd.c ****             }
1317:Drivers/STM32F1xx_HAL_Driver/Src/stm32f1xx_hal_pcd.c ****           }
1318:Drivers/STM32F1xx_HAL_Driver/Src/stm32f1xx_hal_pcd.c ****           else
1319:Drivers/STM32F1xx_HAL_Driver/Src/stm32f1xx_hal_pcd.c ****           {
1320:Drivers/STM32F1xx_HAL_Driver/Src/stm32f1xx_hal_pcd.c ****             /*read from endpoint BUF1Addr buffer*/
1321:Drivers/STM32F1xx_HAL_Driver/Src/stm32f1xx_hal_pcd.c ****             count = PCD_GET_EP_DBUF1_CNT(hpcd->Instance, ep->num);
1322:Drivers/STM32F1xx_HAL_Driver/Src/stm32f1xx_hal_pcd.c ****             if (count != 0U)
1323:Drivers/STM32F1xx_HAL_Driver/Src/stm32f1xx_hal_pcd.c ****             {
1324:Drivers/STM32F1xx_HAL_Driver/Src/stm32f1xx_hal_pcd.c ****               USB_ReadPMA(hpcd->Instance, ep->xfer_buff, ep->pmaaddr1, count);
1325:Drivers/STM32F1xx_HAL_Driver/Src/stm32f1xx_hal_pcd.c ****             }
1326:Drivers/STM32F1xx_HAL_Driver/Src/stm32f1xx_hal_pcd.c ****           }
1327:Drivers/STM32F1xx_HAL_Driver/Src/stm32f1xx_hal_pcd.c ****           PCD_FreeUserBuffer(hpcd->Instance, ep->num, PCD_EP_DBUF_OUT);  
1328:Drivers/STM32F1xx_HAL_Driver/Src/stm32f1xx_hal_pcd.c ****         }
1329:Drivers/STM32F1xx_HAL_Driver/Src/stm32f1xx_hal_pcd.c ****         /*multi-packet on the NON control OUT endpoint*/
1330:Drivers/STM32F1xx_HAL_Driver/Src/stm32f1xx_hal_pcd.c ****         ep->xfer_count+=count;
1331:Drivers/STM32F1xx_HAL_Driver/Src/stm32f1xx_hal_pcd.c ****         ep->xfer_buff+=count;
1332:Drivers/STM32F1xx_HAL_Driver/Src/stm32f1xx_hal_pcd.c ****        
1333:Drivers/STM32F1xx_HAL_Driver/Src/stm32f1xx_hal_pcd.c ****         if ((ep->xfer_len == 0U) || (count < ep->maxpacket))
1334:Drivers/STM32F1xx_HAL_Driver/Src/stm32f1xx_hal_pcd.c ****         {
1335:Drivers/STM32F1xx_HAL_Driver/Src/stm32f1xx_hal_pcd.c ****           /* RX COMPLETE */
1336:Drivers/STM32F1xx_HAL_Driver/Src/stm32f1xx_hal_pcd.c ****           HAL_PCD_DataOutStageCallback(hpcd, ep->num);
1337:Drivers/STM32F1xx_HAL_Driver/Src/stm32f1xx_hal_pcd.c ****         }
1338:Drivers/STM32F1xx_HAL_Driver/Src/stm32f1xx_hal_pcd.c ****         else
1339:Drivers/STM32F1xx_HAL_Driver/Src/stm32f1xx_hal_pcd.c ****         {
ARM GAS  C:\Users\Eemeli\AppData\Local\Temp\cccfLE7k.s 			page 54


1340:Drivers/STM32F1xx_HAL_Driver/Src/stm32f1xx_hal_pcd.c ****           HAL_PCD_EP_Receive(hpcd, ep->num, ep->xfer_buff, ep->xfer_len);
1341:Drivers/STM32F1xx_HAL_Driver/Src/stm32f1xx_hal_pcd.c ****         }
1342:Drivers/STM32F1xx_HAL_Driver/Src/stm32f1xx_hal_pcd.c ****         
1343:Drivers/STM32F1xx_HAL_Driver/Src/stm32f1xx_hal_pcd.c ****       } /* if((wEPVal & EP_CTR_RX) */
1344:Drivers/STM32F1xx_HAL_Driver/Src/stm32f1xx_hal_pcd.c ****       
1345:Drivers/STM32F1xx_HAL_Driver/Src/stm32f1xx_hal_pcd.c ****       if ((wEPVal & USB_EP_CTR_TX) != 0U)
1346:Drivers/STM32F1xx_HAL_Driver/Src/stm32f1xx_hal_pcd.c ****       {
1347:Drivers/STM32F1xx_HAL_Driver/Src/stm32f1xx_hal_pcd.c ****         ep = &hpcd->IN_ep[epindex];
1348:Drivers/STM32F1xx_HAL_Driver/Src/stm32f1xx_hal_pcd.c ****         
1349:Drivers/STM32F1xx_HAL_Driver/Src/stm32f1xx_hal_pcd.c ****         /* clear int flag */
1350:Drivers/STM32F1xx_HAL_Driver/Src/stm32f1xx_hal_pcd.c ****         PCD_CLEAR_TX_EP_CTR(hpcd->Instance, epindex);
 1511              		.loc 1 1350 9 view .LVU379
 1512 0182 DFF8B893 		ldr	r9, .L186
 1513              	.LBB15:
1282:Drivers/STM32F1xx_HAL_Driver/Src/stm32f1xx_hal_pcd.c ****         }
 1514              		.loc 1 1282 11 view .LVU380
 1515 0186 DFF8B8A3 		ldr	r10, .L186+4
 1516              	.LBE15:
 1517              	.LBB16:
 1518              	.LBB17:
1281:Drivers/STM32F1xx_HAL_Driver/Src/stm32f1xx_hal_pcd.c ****           PCD_SET_EP_RX_STATUS(hpcd->Instance, PCD_ENDP0, USB_EP_RX_VALID);
 1519              		.loc 1 1281 11 view .LVU381
 1520 018a DFF8B8B3 		ldr	fp, .L186+8
 1521              	.LBE17:
 1522              	.LBE16:
1208:Drivers/STM32F1xx_HAL_Driver/Src/stm32f1xx_hal_pcd.c ****   __IO uint16_t wEPVal = 0;
 1523              		.loc 1 1208 17 view .LVU382
 1524 018e ADF80430 		strh	r3, [sp, #4]	@ movhi
1209:Drivers/STM32F1xx_HAL_Driver/Src/stm32f1xx_hal_pcd.c ****   
 1525              		.loc 1 1209 3 is_stmt 1 view .LVU383
1209:Drivers/STM32F1xx_HAL_Driver/Src/stm32f1xx_hal_pcd.c ****   
 1526              		.loc 1 1209 17 is_stmt 0 view .LVU384
 1527 0192 ADF80630 		strh	r3, [sp, #6]	@ movhi
1212:Drivers/STM32F1xx_HAL_Driver/Src/stm32f1xx_hal_pcd.c ****   {
 1528              		.loc 1 1212 3 is_stmt 1 view .LVU385
 1529              	.LVL109:
 1530              	.L93:
1212:Drivers/STM32F1xx_HAL_Driver/Src/stm32f1xx_hal_pcd.c ****   {
 1531              		.loc 1 1212 34 is_stmt 0 view .LVU386
 1532 0196 B2F84430 		ldrh	r3, [r2, #68]
 1533 019a 9BB2     		uxth	r3, r3
1212:Drivers/STM32F1xx_HAL_Driver/Src/stm32f1xx_hal_pcd.c ****   {
 1534              		.loc 1 1212 9 view .LVU387
 1535 019c 1F04     		lsls	r7, r3, #16
1212:Drivers/STM32F1xx_HAL_Driver/Src/stm32f1xx_hal_pcd.c ****   {
 1536              		.loc 1 1212 18 view .LVU388
 1537 019e ADF80430 		strh	r3, [sp, #4]	@ movhi
1212:Drivers/STM32F1xx_HAL_Driver/Src/stm32f1xx_hal_pcd.c ****   {
 1538              		.loc 1 1212 9 view .LVU389
 1539 01a2 7FF538AF 		bpl	.L92
1215:Drivers/STM32F1xx_HAL_Driver/Src/stm32f1xx_hal_pcd.c ****     
 1540              		.loc 1 1215 5 is_stmt 1 view .LVU390
1215:Drivers/STM32F1xx_HAL_Driver/Src/stm32f1xx_hal_pcd.c ****     
 1541              		.loc 1 1215 15 is_stmt 0 view .LVU391
 1542 01a6 BDF80460 		ldrh	r6, [sp, #4]
 1543              	.LVL110:
1217:Drivers/STM32F1xx_HAL_Driver/Src/stm32f1xx_hal_pcd.c ****     {
ARM GAS  C:\Users\Eemeli\AppData\Local\Temp\cccfLE7k.s 			page 55


 1544              		.loc 1 1217 5 is_stmt 1 view .LVU392
1217:Drivers/STM32F1xx_HAL_Driver/Src/stm32f1xx_hal_pcd.c ****     {
 1545              		.loc 1 1217 8 is_stmt 0 view .LVU393
 1546 01aa 16F00F06 		ands	r6, r6, #15
 1547              	.LVL111:
1217:Drivers/STM32F1xx_HAL_Driver/Src/stm32f1xx_hal_pcd.c ****     {
 1548              		.loc 1 1217 8 view .LVU394
 1549 01ae 4DD1     		bne	.L94
1222:Drivers/STM32F1xx_HAL_Driver/Src/stm32f1xx_hal_pcd.c ****       {
 1550              		.loc 1 1222 7 is_stmt 1 view .LVU395
1222:Drivers/STM32F1xx_HAL_Driver/Src/stm32f1xx_hal_pcd.c ****       {
 1551              		.loc 1 1222 18 is_stmt 0 view .LVU396
 1552 01b0 BDF80410 		ldrh	r1, [sp, #4]
1228:Drivers/STM32F1xx_HAL_Driver/Src/stm32f1xx_hal_pcd.c ****         ep = &hpcd->IN_ep[0];
 1553              		.loc 1 1228 9 view .LVU397
 1554 01b4 1388     		ldrh	r3, [r2]
1222:Drivers/STM32F1xx_HAL_Driver/Src/stm32f1xx_hal_pcd.c ****       {
 1555              		.loc 1 1222 10 view .LVU398
 1556 01b6 11F01001 		ands	r1, r1, #16
 1557 01ba 00F0C480 		beq	.L175
1251:Drivers/STM32F1xx_HAL_Driver/Src/stm32f1xx_hal_pcd.c ****         wEPVal = PCD_GET_ENDPOINT(hpcd->Instance, PCD_ENDP0);
 1558              		.loc 1 1251 9 is_stmt 1 view .LVU399
1252:Drivers/STM32F1xx_HAL_Driver/Src/stm32f1xx_hal_pcd.c ****         
 1559              		.loc 1 1252 9 view .LVU400
1252:Drivers/STM32F1xx_HAL_Driver/Src/stm32f1xx_hal_pcd.c ****         
 1560              		.loc 1 1252 18 is_stmt 0 view .LVU401
 1561 01be 9BB2     		uxth	r3, r3
1252:Drivers/STM32F1xx_HAL_Driver/Src/stm32f1xx_hal_pcd.c ****         
 1562              		.loc 1 1252 16 view .LVU402
 1563 01c0 ADF80630 		strh	r3, [sp, #6]	@ movhi
1254:Drivers/STM32F1xx_HAL_Driver/Src/stm32f1xx_hal_pcd.c ****         {
 1564              		.loc 1 1254 9 is_stmt 1 view .LVU403
1254:Drivers/STM32F1xx_HAL_Driver/Src/stm32f1xx_hal_pcd.c ****         {
 1565              		.loc 1 1254 21 is_stmt 0 view .LVU404
 1566 01c4 BDF80630 		ldrh	r3, [sp, #6]
1254:Drivers/STM32F1xx_HAL_Driver/Src/stm32f1xx_hal_pcd.c ****         {
 1567              		.loc 1 1254 12 view .LVU405
 1568 01c8 1905     		lsls	r1, r3, #20
 1569 01ca 00F10881 		bmi	.L176
1266:Drivers/STM32F1xx_HAL_Driver/Src/stm32f1xx_hal_pcd.c ****         {
 1570              		.loc 1 1266 14 is_stmt 1 view .LVU406
1266:Drivers/STM32F1xx_HAL_Driver/Src/stm32f1xx_hal_pcd.c ****         {
 1571              		.loc 1 1266 43 is_stmt 0 view .LVU407
 1572 01ce BDF80630 		ldrh	r3, [sp, #6]
1266:Drivers/STM32F1xx_HAL_Driver/Src/stm32f1xx_hal_pcd.c ****         {
 1573              		.loc 1 1266 17 view .LVU408
 1574 01d2 1B04     		lsls	r3, r3, #16
 1575 01d4 DFD5     		bpl	.L93
1268:Drivers/STM32F1xx_HAL_Driver/Src/stm32f1xx_hal_pcd.c ****           /* Get Control Data OUT Packet*/
 1576              		.loc 1 1268 11 is_stmt 1 view .LVU409
 1577 01d6 40F68F73 		movw	r3, #3983
 1578 01da 1188     		ldrh	r1, [r2]
 1579 01dc 0B40     		ands	r3, r3, r1
 1580 01de 1380     		strh	r3, [r2]	@ movhi
1270:Drivers/STM32F1xx_HAL_Driver/Src/stm32f1xx_hal_pcd.c ****           
 1581              		.loc 1 1270 11 view .LVU410
1270:Drivers/STM32F1xx_HAL_Driver/Src/stm32f1xx_hal_pcd.c ****           
ARM GAS  C:\Users\Eemeli\AppData\Local\Temp\cccfLE7k.s 			page 56


 1582              		.loc 1 1270 28 is_stmt 0 view .LVU411
 1583 01e0 B2F85030 		ldrh	r3, [r2, #80]
 1584 01e4 94F82812 		ldrb	r1, [r4, #552]	@ zero_extendqisi2
 1585 01e8 03EBC103 		add	r3, r3, r1, lsl #3
 1586 01ec 02EB4303 		add	r3, r2, r3, lsl #1
 1587 01f0 D3F80C34 		ldr	r3, [r3, #1036]
 1588 01f4 C3F30903 		ubfx	r3, r3, #0, #10
1270:Drivers/STM32F1xx_HAL_Driver/Src/stm32f1xx_hal_pcd.c ****           
 1589              		.loc 1 1270 26 view .LVU412
 1590 01f8 C4F84432 		str	r3, [r4, #580]
1272:Drivers/STM32F1xx_HAL_Driver/Src/stm32f1xx_hal_pcd.c ****           {
 1591              		.loc 1 1272 11 is_stmt 1 view .LVU413
1272:Drivers/STM32F1xx_HAL_Driver/Src/stm32f1xx_hal_pcd.c ****           {
 1592              		.loc 1 1272 14 is_stmt 0 view .LVU414
 1593 01fc 002B     		cmp	r3, #0
 1594 01fe 40F06F81 		bne	.L177
 1595              	.L99:
1279:Drivers/STM32F1xx_HAL_Driver/Src/stm32f1xx_hal_pcd.c ****           
 1596              		.loc 1 1279 12 is_stmt 1 view .LVU415
 1597 0202 0021     		movs	r1, #0
 1598 0204 2046     		mov	r0, r4
 1599 0206 FFF7FEFF 		bl	HAL_PCD_DataOutStageCallback
 1600              	.LVL112:
 1601              	.LBB22:
1281:Drivers/STM32F1xx_HAL_Driver/Src/stm32f1xx_hal_pcd.c ****           PCD_SET_EP_RX_STATUS(hpcd->Instance, PCD_ENDP0, USB_EP_RX_VALID);
 1602              		.loc 1 1281 11 view .LVU416
 1603 020a 2268     		ldr	r2, [r4]
 1604              	.LBB18:
 1605 020c D4F83812 		ldr	r1, [r4, #568]
 1606              	.LBE18:
 1607 0210 B2F85030 		ldrh	r3, [r2, #80]
 1608              	.LBB19:
 1609 0214 3E29     		cmp	r1, #62
 1610              	.LBE19:
 1611 0216 02F58065 		add	r5, r2, #1024
 1612 021a 03F10603 		add	r3, r3, #6
 1613              	.LVL113:
 1614              	.LBB20:
1281:Drivers/STM32F1xx_HAL_Driver/Src/stm32f1xx_hal_pcd.c ****           PCD_SET_EP_RX_STATUS(hpcd->Instance, PCD_ENDP0, USB_EP_RX_VALID);
 1615              		.loc 1 1281 11 view .LVU417
1281:Drivers/STM32F1xx_HAL_Driver/Src/stm32f1xx_hal_pcd.c ****           PCD_SET_EP_RX_STATUS(hpcd->Instance, PCD_ENDP0, USB_EP_RX_VALID);
 1616              		.loc 1 1281 11 view .LVU418
 1617 021e 00F24981 		bhi	.L178
1281:Drivers/STM32F1xx_HAL_Driver/Src/stm32f1xx_hal_pcd.c ****           PCD_SET_EP_RX_STATUS(hpcd->Instance, PCD_ENDP0, USB_EP_RX_VALID);
 1618              		.loc 1 1281 11 view .LVU419
 1619 0222 C1F34F00 		ubfx	r0, r1, #1, #16
 1620              	.LVL114:
1281:Drivers/STM32F1xx_HAL_Driver/Src/stm32f1xx_hal_pcd.c ****           PCD_SET_EP_RX_STATUS(hpcd->Instance, PCD_ENDP0, USB_EP_RX_VALID);
 1621              		.loc 1 1281 11 view .LVU420
 1622 0226 CE07     		lsls	r6, r1, #31
1281:Drivers/STM32F1xx_HAL_Driver/Src/stm32f1xx_hal_pcd.c ****           PCD_SET_EP_RX_STATUS(hpcd->Instance, PCD_ENDP0, USB_EP_RX_VALID);
 1623              		.loc 1 1281 11 view .LVU421
 1624 0228 44BF     		itt	mi
 1625 022a 0130     		addmi	r0, r0, #1
 1626              	.LVL115:
1281:Drivers/STM32F1xx_HAL_Driver/Src/stm32f1xx_hal_pcd.c ****           PCD_SET_EP_RX_STATUS(hpcd->Instance, PCD_ENDP0, USB_EP_RX_VALID);
 1627              		.loc 1 1281 11 is_stmt 0 view .LVU422
ARM GAS  C:\Users\Eemeli\AppData\Local\Temp\cccfLE7k.s 			page 57


 1628 022c 80B2     		uxthmi	r0, r0
 1629              	.LVL116:
1281:Drivers/STM32F1xx_HAL_Driver/Src/stm32f1xx_hal_pcd.c ****           PCD_SET_EP_RX_STATUS(hpcd->Instance, PCD_ENDP0, USB_EP_RX_VALID);
 1630              		.loc 1 1281 11 is_stmt 1 view .LVU423
 1631 022e 8002     		lsls	r0, r0, #10
 1632              	.LVL117:
1281:Drivers/STM32F1xx_HAL_Driver/Src/stm32f1xx_hal_pcd.c ****           PCD_SET_EP_RX_STATUS(hpcd->Instance, PCD_ENDP0, USB_EP_RX_VALID);
 1633              		.loc 1 1281 11 is_stmt 0 view .LVU424
 1634 0230 80B2     		uxth	r0, r0
 1635 0232 45F81300 		str	r0, [r5, r3, lsl #1]
 1636              	.LVL118:
 1637              	.L102:
1281:Drivers/STM32F1xx_HAL_Driver/Src/stm32f1xx_hal_pcd.c ****           PCD_SET_EP_RX_STATUS(hpcd->Instance, PCD_ENDP0, USB_EP_RX_VALID);
 1638              		.loc 1 1281 11 is_stmt 1 view .LVU425
 1639              	.LBE20:
1281:Drivers/STM32F1xx_HAL_Driver/Src/stm32f1xx_hal_pcd.c ****           PCD_SET_EP_RX_STATUS(hpcd->Instance, PCD_ENDP0, USB_EP_RX_VALID);
 1640              		.loc 1 1281 11 view .LVU426
 1641              	.LBE22:
1281:Drivers/STM32F1xx_HAL_Driver/Src/stm32f1xx_hal_pcd.c ****           PCD_SET_EP_RX_STATUS(hpcd->Instance, PCD_ENDP0, USB_EP_RX_VALID);
 1642              		.loc 1 1281 70 view .LVU427
 1643              	.LBB23:
1282:Drivers/STM32F1xx_HAL_Driver/Src/stm32f1xx_hal_pcd.c ****         }
 1644              		.loc 1 1282 11 view .LVU428
1282:Drivers/STM32F1xx_HAL_Driver/Src/stm32f1xx_hal_pcd.c ****         }
 1645              		.loc 1 1282 11 view .LVU429
 1646 0236 1388     		ldrh	r3, [r2]
 1647              	.LVL119:
1282:Drivers/STM32F1xx_HAL_Driver/Src/stm32f1xx_hal_pcd.c ****         }
 1648              		.loc 1 1282 11 is_stmt 0 view .LVU430
 1649 0238 0AEA0303 		and	r3, r10, r3
 1650              	.LVL120:
1282:Drivers/STM32F1xx_HAL_Driver/Src/stm32f1xx_hal_pcd.c ****         }
 1651              		.loc 1 1282 11 is_stmt 1 view .LVU431
1282:Drivers/STM32F1xx_HAL_Driver/Src/stm32f1xx_hal_pcd.c ****         }
 1652              		.loc 1 1282 11 view .LVU432
1282:Drivers/STM32F1xx_HAL_Driver/Src/stm32f1xx_hal_pcd.c ****         }
 1653              		.loc 1 1282 11 view .LVU433
1282:Drivers/STM32F1xx_HAL_Driver/Src/stm32f1xx_hal_pcd.c ****         }
 1654              		.loc 1 1282 11 view .LVU434
1282:Drivers/STM32F1xx_HAL_Driver/Src/stm32f1xx_hal_pcd.c ****         }
 1655              		.loc 1 1282 11 view .LVU435
 1656 023c 83F44053 		eor	r3, r3, #12288
 1657              	.LVL121:
1282:Drivers/STM32F1xx_HAL_Driver/Src/stm32f1xx_hal_pcd.c ****         }
 1658              		.loc 1 1282 11 is_stmt 0 view .LVU436
 1659 0240 43F40043 		orr	r3, r3, #32768
 1660              	.LVL122:
1282:Drivers/STM32F1xx_HAL_Driver/Src/stm32f1xx_hal_pcd.c ****         }
 1661              		.loc 1 1282 11 view .LVU437
 1662 0244 43F08003 		orr	r3, r3, #128
 1663 0248 1380     		strh	r3, [r2]	@ movhi
 1664 024a A4E7     		b	.L93
 1665              	.L94:
1282:Drivers/STM32F1xx_HAL_Driver/Src/stm32f1xx_hal_pcd.c ****         }
 1666              		.loc 1 1282 11 view .LVU438
 1667              	.LBE23:
1291:Drivers/STM32F1xx_HAL_Driver/Src/stm32f1xx_hal_pcd.c ****       if ((wEPVal & USB_EP_CTR_RX) != 0U)
ARM GAS  C:\Users\Eemeli\AppData\Local\Temp\cccfLE7k.s 			page 58


 1668              		.loc 1 1291 7 is_stmt 1 view .LVU439
1291:Drivers/STM32F1xx_HAL_Driver/Src/stm32f1xx_hal_pcd.c ****       if ((wEPVal & USB_EP_CTR_RX) != 0U)
 1669              		.loc 1 1291 16 is_stmt 0 view .LVU440
 1670 024c 32F82630 		ldrh	r3, [r2, r6, lsl #2]
 1671 0250 9BB2     		uxth	r3, r3
1291:Drivers/STM32F1xx_HAL_Driver/Src/stm32f1xx_hal_pcd.c ****       if ((wEPVal & USB_EP_CTR_RX) != 0U)
 1672              		.loc 1 1291 14 view .LVU441
 1673 0252 ADF80630 		strh	r3, [sp, #6]	@ movhi
1292:Drivers/STM32F1xx_HAL_Driver/Src/stm32f1xx_hal_pcd.c ****       {  
 1674              		.loc 1 1292 7 is_stmt 1 view .LVU442
1292:Drivers/STM32F1xx_HAL_Driver/Src/stm32f1xx_hal_pcd.c ****       {  
 1675              		.loc 1 1292 36 is_stmt 0 view .LVU443
 1676 0256 BDF80630 		ldrh	r3, [sp, #6]
1292:Drivers/STM32F1xx_HAL_Driver/Src/stm32f1xx_hal_pcd.c ****       {  
 1677              		.loc 1 1292 10 view .LVU444
 1678 025a 1904     		lsls	r1, r3, #16
 1679 025c 3AD4     		bmi	.L179
 1680              	.L104:
1345:Drivers/STM32F1xx_HAL_Driver/Src/stm32f1xx_hal_pcd.c ****       {
 1681              		.loc 1 1345 7 is_stmt 1 view .LVU445
1345:Drivers/STM32F1xx_HAL_Driver/Src/stm32f1xx_hal_pcd.c ****       {
 1682              		.loc 1 1345 19 is_stmt 0 view .LVU446
 1683 025e BDF80630 		ldrh	r3, [sp, #6]
1345:Drivers/STM32F1xx_HAL_Driver/Src/stm32f1xx_hal_pcd.c ****       {
 1684              		.loc 1 1345 10 view .LVU447
 1685 0262 1B06     		lsls	r3, r3, #24
 1686 0264 97D5     		bpl	.L93
1347:Drivers/STM32F1xx_HAL_Driver/Src/stm32f1xx_hal_pcd.c ****         
 1687              		.loc 1 1347 9 is_stmt 1 view .LVU448
 1688              	.LVL123:
 1689              		.loc 1 1350 9 view .LVU449
 1690 0266 32F82630 		ldrh	r3, [r2, r6, lsl #2]
1351:Drivers/STM32F1xx_HAL_Driver/Src/stm32f1xx_hal_pcd.c ****         
1352:Drivers/STM32F1xx_HAL_Driver/Src/stm32f1xx_hal_pcd.c ****         /* IN double Buffering*/
1353:Drivers/STM32F1xx_HAL_Driver/Src/stm32f1xx_hal_pcd.c ****         if (ep->doublebuffer == 0U)
 1691              		.loc 1 1353 15 is_stmt 0 view .LVU450
 1692 026a 7501     		lsls	r5, r6, #5
1350:Drivers/STM32F1xx_HAL_Driver/Src/stm32f1xx_hal_pcd.c ****         
 1693              		.loc 1 1350 9 view .LVU451
 1694 026c 09EA0303 		and	r3, r9, r3
 1695 0270 22F82630 		strh	r3, [r2, r6, lsl #2]	@ movhi
 1696              		.loc 1 1353 9 is_stmt 1 view .LVU452
 1697              		.loc 1 1353 15 is_stmt 0 view .LVU453
 1698 0274 6719     		adds	r7, r4, r5
 1699              		.loc 1 1353 12 view .LVU454
 1700 0276 97F83230 		ldrb	r3, [r7, #50]	@ zero_extendqisi2
 1701 027a 02F58061 		add	r1, r2, #1024
 1702 027e 002B     		cmp	r3, #0
 1703 0280 40F08F80 		bne	.L112
1354:Drivers/STM32F1xx_HAL_Driver/Src/stm32f1xx_hal_pcd.c ****         {
1355:Drivers/STM32F1xx_HAL_Driver/Src/stm32f1xx_hal_pcd.c ****           ep->xfer_count = PCD_GET_EP_TX_CNT(hpcd->Instance, ep->num);
 1704              		.loc 1 1355 11 is_stmt 1 view .LVU455
 1705              		.loc 1 1355 28 is_stmt 0 view .LVU456
 1706 0284 B2F85030 		ldrh	r3, [r2, #80]
 1707 0288 97F82800 		ldrb	r0, [r7, #40]	@ zero_extendqisi2
 1708 028c 03EBC003 		add	r3, r3, r0, lsl #3
 1709 0290 0233     		adds	r3, r3, #2
ARM GAS  C:\Users\Eemeli\AppData\Local\Temp\cccfLE7k.s 			page 59


 1710 0292 51F81330 		ldr	r3, [r1, r3, lsl #1]
 1711 0296 C3F30903 		ubfx	r3, r3, #0, #10
 1712              		.loc 1 1355 26 view .LVU457
 1713 029a 7B64     		str	r3, [r7, #68]
1356:Drivers/STM32F1xx_HAL_Driver/Src/stm32f1xx_hal_pcd.c ****           if (ep->xfer_count != 0U)
 1714              		.loc 1 1356 11 is_stmt 1 view .LVU458
 1715              		.loc 1 1356 14 is_stmt 0 view .LVU459
 1716 029c 002B     		cmp	r3, #0
 1717 029e 40F03681 		bne	.L180
 1718              	.LVL124:
 1719              	.L113:
1357:Drivers/STM32F1xx_HAL_Driver/Src/stm32f1xx_hal_pcd.c ****           {
1358:Drivers/STM32F1xx_HAL_Driver/Src/stm32f1xx_hal_pcd.c ****             USB_WritePMA(hpcd->Instance, ep->xfer_buff, ep->pmaadress, ep->xfer_count);
1359:Drivers/STM32F1xx_HAL_Driver/Src/stm32f1xx_hal_pcd.c ****           }
1360:Drivers/STM32F1xx_HAL_Driver/Src/stm32f1xx_hal_pcd.c ****         }
1361:Drivers/STM32F1xx_HAL_Driver/Src/stm32f1xx_hal_pcd.c ****         else
1362:Drivers/STM32F1xx_HAL_Driver/Src/stm32f1xx_hal_pcd.c ****         {
1363:Drivers/STM32F1xx_HAL_Driver/Src/stm32f1xx_hal_pcd.c ****           if (PCD_GET_ENDPOINT(hpcd->Instance, ep->num) & USB_EP_DTOG_TX)
1364:Drivers/STM32F1xx_HAL_Driver/Src/stm32f1xx_hal_pcd.c ****           {
1365:Drivers/STM32F1xx_HAL_Driver/Src/stm32f1xx_hal_pcd.c ****             /*read from endpoint BUF0Addr buffer*/
1366:Drivers/STM32F1xx_HAL_Driver/Src/stm32f1xx_hal_pcd.c ****             ep->xfer_count = PCD_GET_EP_DBUF0_CNT(hpcd->Instance, ep->num);
1367:Drivers/STM32F1xx_HAL_Driver/Src/stm32f1xx_hal_pcd.c ****             if (ep->xfer_count != 0U)
1368:Drivers/STM32F1xx_HAL_Driver/Src/stm32f1xx_hal_pcd.c ****             {
1369:Drivers/STM32F1xx_HAL_Driver/Src/stm32f1xx_hal_pcd.c ****               USB_WritePMA(hpcd->Instance, ep->xfer_buff, ep->pmaaddr0, ep->xfer_count);
1370:Drivers/STM32F1xx_HAL_Driver/Src/stm32f1xx_hal_pcd.c ****             }
1371:Drivers/STM32F1xx_HAL_Driver/Src/stm32f1xx_hal_pcd.c ****           }
1372:Drivers/STM32F1xx_HAL_Driver/Src/stm32f1xx_hal_pcd.c ****           else
1373:Drivers/STM32F1xx_HAL_Driver/Src/stm32f1xx_hal_pcd.c ****           {
1374:Drivers/STM32F1xx_HAL_Driver/Src/stm32f1xx_hal_pcd.c ****             /*read from endpoint BUF1Addr buffer*/
1375:Drivers/STM32F1xx_HAL_Driver/Src/stm32f1xx_hal_pcd.c ****             ep->xfer_count = PCD_GET_EP_DBUF1_CNT(hpcd->Instance, ep->num);
1376:Drivers/STM32F1xx_HAL_Driver/Src/stm32f1xx_hal_pcd.c ****             if (ep->xfer_count != 0U)
1377:Drivers/STM32F1xx_HAL_Driver/Src/stm32f1xx_hal_pcd.c ****             {
1378:Drivers/STM32F1xx_HAL_Driver/Src/stm32f1xx_hal_pcd.c ****               USB_WritePMA(hpcd->Instance, ep->xfer_buff, ep->pmaaddr1, ep->xfer_count);
1379:Drivers/STM32F1xx_HAL_Driver/Src/stm32f1xx_hal_pcd.c ****             }
1380:Drivers/STM32F1xx_HAL_Driver/Src/stm32f1xx_hal_pcd.c ****           }
1381:Drivers/STM32F1xx_HAL_Driver/Src/stm32f1xx_hal_pcd.c ****           PCD_FreeUserBuffer(hpcd->Instance, ep->num, PCD_EP_DBUF_IN);  
 1720              		.loc 1 1381 70 is_stmt 1 view .LVU460
1382:Drivers/STM32F1xx_HAL_Driver/Src/stm32f1xx_hal_pcd.c ****         }
1383:Drivers/STM32F1xx_HAL_Driver/Src/stm32f1xx_hal_pcd.c ****         /*multi-packet on the NON control IN endpoint*/
1384:Drivers/STM32F1xx_HAL_Driver/Src/stm32f1xx_hal_pcd.c ****         ep->xfer_count = PCD_GET_EP_TX_CNT(hpcd->Instance, ep->num);
 1721              		.loc 1 1384 9 view .LVU461
 1722              		.loc 1 1384 26 is_stmt 0 view .LVU462
 1723 02a2 2544     		add	r5, r5, r4
 1724 02a4 B2F85030 		ldrh	r3, [r2, #80]
 1725 02a8 95F82800 		ldrb	r0, [r5, #40]	@ zero_extendqisi2
1385:Drivers/STM32F1xx_HAL_Driver/Src/stm32f1xx_hal_pcd.c ****         ep->xfer_buff+=ep->xfer_count;
 1726              		.loc 1 1385 22 view .LVU463
 1727 02ac EA6B     		ldr	r2, [r5, #60]
1384:Drivers/STM32F1xx_HAL_Driver/Src/stm32f1xx_hal_pcd.c ****         ep->xfer_buff+=ep->xfer_count;
 1728              		.loc 1 1384 26 view .LVU464
 1729 02ae 03EBC003 		add	r3, r3, r0, lsl #3
 1730 02b2 0233     		adds	r3, r3, #2
 1731 02b4 51F81310 		ldr	r1, [r1, r3, lsl #1]
1386:Drivers/STM32F1xx_HAL_Driver/Src/stm32f1xx_hal_pcd.c ****        
1387:Drivers/STM32F1xx_HAL_Driver/Src/stm32f1xx_hal_pcd.c ****         /* Zero Length Packet? */
1388:Drivers/STM32F1xx_HAL_Driver/Src/stm32f1xx_hal_pcd.c ****         if (ep->xfer_len == 0U)
 1732              		.loc 1 1388 15 view .LVU465
ARM GAS  C:\Users\Eemeli\AppData\Local\Temp\cccfLE7k.s 			page 60


 1733 02b8 2B6C     		ldr	r3, [r5, #64]
1384:Drivers/STM32F1xx_HAL_Driver/Src/stm32f1xx_hal_pcd.c ****         ep->xfer_buff+=ep->xfer_count;
 1734              		.loc 1 1384 26 view .LVU466
 1735 02ba C1F30901 		ubfx	r1, r1, #0, #10
1385:Drivers/STM32F1xx_HAL_Driver/Src/stm32f1xx_hal_pcd.c ****        
 1736              		.loc 1 1385 22 view .LVU467
 1737 02be 0A44     		add	r2, r2, r1
1384:Drivers/STM32F1xx_HAL_Driver/Src/stm32f1xx_hal_pcd.c ****         ep->xfer_buff+=ep->xfer_count;
 1738              		.loc 1 1384 24 view .LVU468
 1739 02c0 6964     		str	r1, [r5, #68]
1385:Drivers/STM32F1xx_HAL_Driver/Src/stm32f1xx_hal_pcd.c ****        
 1740              		.loc 1 1385 9 is_stmt 1 view .LVU469
1385:Drivers/STM32F1xx_HAL_Driver/Src/stm32f1xx_hal_pcd.c ****        
 1741              		.loc 1 1385 22 is_stmt 0 view .LVU470
 1742 02c2 EA63     		str	r2, [r5, #60]
 1743              		.loc 1 1388 9 is_stmt 1 view .LVU471
 1744              		.loc 1 1388 12 is_stmt 0 view .LVU472
 1745 02c4 002B     		cmp	r3, #0
 1746 02c6 65D1     		bne	.L116
1389:Drivers/STM32F1xx_HAL_Driver/Src/stm32f1xx_hal_pcd.c ****         {
1390:Drivers/STM32F1xx_HAL_Driver/Src/stm32f1xx_hal_pcd.c ****           /* TX COMPLETE */
1391:Drivers/STM32F1xx_HAL_Driver/Src/stm32f1xx_hal_pcd.c ****           HAL_PCD_DataInStageCallback(hpcd, ep->num);
 1747              		.loc 1 1391 11 is_stmt 1 view .LVU473
 1748 02c8 0146     		mov	r1, r0
 1749 02ca 2046     		mov	r0, r4
 1750 02cc FFF7FEFF 		bl	HAL_PCD_DataInStageCallback
 1751              	.LVL125:
 1752 02d0 2268     		ldr	r2, [r4]
 1753 02d2 60E7     		b	.L93
 1754              	.L179:
1295:Drivers/STM32F1xx_HAL_Driver/Src/stm32f1xx_hal_pcd.c ****         ep = &hpcd->OUT_ep[epindex];
 1755              		.loc 1 1295 9 view .LVU474
 1756 02d4 40F68F73 		movw	r3, #3983
 1757 02d8 32F82610 		ldrh	r1, [r2, r6, lsl #2]
1299:Drivers/STM32F1xx_HAL_Driver/Src/stm32f1xx_hal_pcd.c ****         {
 1758              		.loc 1 1299 15 is_stmt 0 view .LVU475
 1759 02dc 7501     		lsls	r5, r6, #5
1295:Drivers/STM32F1xx_HAL_Driver/Src/stm32f1xx_hal_pcd.c ****         ep = &hpcd->OUT_ep[epindex];
 1760              		.loc 1 1295 9 view .LVU476
 1761 02de 0B40     		ands	r3, r3, r1
 1762 02e0 22F82630 		strh	r3, [r2, r6, lsl #2]	@ movhi
1296:Drivers/STM32F1xx_HAL_Driver/Src/stm32f1xx_hal_pcd.c ****         
 1763              		.loc 1 1296 9 is_stmt 1 view .LVU477
 1764              	.LVL126:
1299:Drivers/STM32F1xx_HAL_Driver/Src/stm32f1xx_hal_pcd.c ****         {
 1765              		.loc 1 1299 9 view .LVU478
1299:Drivers/STM32F1xx_HAL_Driver/Src/stm32f1xx_hal_pcd.c ****         {
 1766              		.loc 1 1299 15 is_stmt 0 view .LVU479
 1767 02e4 04EB0508 		add	r8, r4, r5
1299:Drivers/STM32F1xx_HAL_Driver/Src/stm32f1xx_hal_pcd.c ****         {
 1768              		.loc 1 1299 12 view .LVU480
 1769 02e8 98F83232 		ldrb	r3, [r8, #562]	@ zero_extendqisi2
 1770 02ec 02F58060 		add	r0, r2, #1024
 1771 02f0 002B     		cmp	r3, #0
 1772 02f2 40F09480 		bne	.L105
1301:Drivers/STM32F1xx_HAL_Driver/Src/stm32f1xx_hal_pcd.c ****           if (count != 0U)
 1773              		.loc 1 1301 11 is_stmt 1 view .LVU481
ARM GAS  C:\Users\Eemeli\AppData\Local\Temp\cccfLE7k.s 			page 61


1301:Drivers/STM32F1xx_HAL_Driver/Src/stm32f1xx_hal_pcd.c ****           if (count != 0U)
 1774              		.loc 1 1301 19 is_stmt 0 view .LVU482
 1775 02f6 B2F85030 		ldrh	r3, [r2, #80]
 1776 02fa 98F82812 		ldrb	r1, [r8, #552]	@ zero_extendqisi2
 1777 02fe 03EBC103 		add	r3, r3, r1, lsl #3
 1778 0302 0633     		adds	r3, r3, #6
 1779 0304 50F81370 		ldr	r7, [r0, r3, lsl #1]
1301:Drivers/STM32F1xx_HAL_Driver/Src/stm32f1xx_hal_pcd.c ****           if (count != 0U)
 1780              		.loc 1 1301 17 view .LVU483
 1781 0308 C7F30907 		ubfx	r7, r7, #0, #10
 1782              	.LVL127:
1302:Drivers/STM32F1xx_HAL_Driver/Src/stm32f1xx_hal_pcd.c ****           {
 1783              		.loc 1 1302 11 is_stmt 1 view .LVU484
1302:Drivers/STM32F1xx_HAL_Driver/Src/stm32f1xx_hal_pcd.c ****           {
 1784              		.loc 1 1302 14 is_stmt 0 view .LVU485
 1785 030c 002F     		cmp	r7, #0
 1786 030e 40F0DE80 		bne	.L181
 1787              	.L106:
1327:Drivers/STM32F1xx_HAL_Driver/Src/stm32f1xx_hal_pcd.c ****         }
 1788              		.loc 1 1327 71 is_stmt 1 view .LVU486
1330:Drivers/STM32F1xx_HAL_Driver/Src/stm32f1xx_hal_pcd.c ****         ep->xfer_buff+=count;
 1789              		.loc 1 1330 9 view .LVU487
 1790 0312 2544     		add	r5, r5, r4
1330:Drivers/STM32F1xx_HAL_Driver/Src/stm32f1xx_hal_pcd.c ****         ep->xfer_buff+=count;
 1791              		.loc 1 1330 23 is_stmt 0 view .LVU488
 1792 0314 D5F84412 		ldr	r1, [r5, #580]
1333:Drivers/STM32F1xx_HAL_Driver/Src/stm32f1xx_hal_pcd.c ****         {
 1793              		.loc 1 1333 16 view .LVU489
 1794 0318 D5E98F23 		ldrd	r2, r3, [r5, #572]
1330:Drivers/STM32F1xx_HAL_Driver/Src/stm32f1xx_hal_pcd.c ****         ep->xfer_buff+=count;
 1795              		.loc 1 1330 23 view .LVU490
 1796 031c 3944     		add	r1, r1, r7
1331:Drivers/STM32F1xx_HAL_Driver/Src/stm32f1xx_hal_pcd.c ****        
 1797              		.loc 1 1331 22 view .LVU491
 1798 031e 3A44     		add	r2, r2, r7
1330:Drivers/STM32F1xx_HAL_Driver/Src/stm32f1xx_hal_pcd.c ****         ep->xfer_buff+=count;
 1799              		.loc 1 1330 23 view .LVU492
 1800 0320 C5F84412 		str	r1, [r5, #580]
1331:Drivers/STM32F1xx_HAL_Driver/Src/stm32f1xx_hal_pcd.c ****        
 1801              		.loc 1 1331 9 is_stmt 1 view .LVU493
1331:Drivers/STM32F1xx_HAL_Driver/Src/stm32f1xx_hal_pcd.c ****        
 1802              		.loc 1 1331 22 is_stmt 0 view .LVU494
 1803 0324 C5F83C22 		str	r2, [r5, #572]
1333:Drivers/STM32F1xx_HAL_Driver/Src/stm32f1xx_hal_pcd.c ****         {
 1804              		.loc 1 1333 9 is_stmt 1 view .LVU495
1333:Drivers/STM32F1xx_HAL_Driver/Src/stm32f1xx_hal_pcd.c ****         {
 1805              		.loc 1 1333 12 is_stmt 0 view .LVU496
 1806 0328 002B     		cmp	r3, #0
 1807 032a 00F0E880 		beq	.L182
1333:Drivers/STM32F1xx_HAL_Driver/Src/stm32f1xx_hal_pcd.c ****         {
 1808              		.loc 1 1333 34 view .LVU497
 1809 032e D5F83802 		ldr	r0, [r5, #568]
 1810 0332 95F82812 		ldrb	r1, [r5, #552]	@ zero_extendqisi2
 1811 0336 8742     		cmp	r7, r0
 1812 0338 80F0E480 		bcs	.L111
 1813              	.L110:
1336:Drivers/STM32F1xx_HAL_Driver/Src/stm32f1xx_hal_pcd.c ****         }
ARM GAS  C:\Users\Eemeli\AppData\Local\Temp\cccfLE7k.s 			page 62


 1814              		.loc 1 1336 11 is_stmt 1 view .LVU498
 1815 033c 2046     		mov	r0, r4
 1816 033e FFF7FEFF 		bl	HAL_PCD_DataOutStageCallback
 1817              	.LVL128:
 1818 0342 2268     		ldr	r2, [r4]
 1819 0344 8BE7     		b	.L104
 1820              	.LVL129:
 1821              	.L175:
1228:Drivers/STM32F1xx_HAL_Driver/Src/stm32f1xx_hal_pcd.c ****         ep = &hpcd->IN_ep[0];
 1822              		.loc 1 1228 9 view .LVU499
 1823 0346 09EA0303 		and	r3, r9, r3
 1824 034a 1380     		strh	r3, [r2]	@ movhi
1229:Drivers/STM32F1xx_HAL_Driver/Src/stm32f1xx_hal_pcd.c ****         
 1825              		.loc 1 1229 9 view .LVU500
 1826              	.LVL130:
1231:Drivers/STM32F1xx_HAL_Driver/Src/stm32f1xx_hal_pcd.c ****         ep->xfer_buff += ep->xfer_count;
 1827              		.loc 1 1231 9 view .LVU501
1231:Drivers/STM32F1xx_HAL_Driver/Src/stm32f1xx_hal_pcd.c ****         ep->xfer_buff += ep->xfer_count;
 1828              		.loc 1 1231 26 is_stmt 0 view .LVU502
 1829 034c B2F85000 		ldrh	r0, [r2, #80]
 1830 0350 94F82850 		ldrb	r5, [r4, #40]	@ zero_extendqisi2
1232:Drivers/STM32F1xx_HAL_Driver/Src/stm32f1xx_hal_pcd.c ****  
 1831              		.loc 1 1232 23 view .LVU503
 1832 0354 E36B     		ldr	r3, [r4, #60]
1231:Drivers/STM32F1xx_HAL_Driver/Src/stm32f1xx_hal_pcd.c ****         ep->xfer_buff += ep->xfer_count;
 1833              		.loc 1 1231 26 view .LVU504
 1834 0356 00EBC500 		add	r0, r0, r5, lsl #3
 1835 035a 02EB4002 		add	r2, r2, r0, lsl #1
 1836 035e D2F80424 		ldr	r2, [r2, #1028]
1235:Drivers/STM32F1xx_HAL_Driver/Src/stm32f1xx_hal_pcd.c ****         
 1837              		.loc 1 1235 9 view .LVU505
 1838 0362 2046     		mov	r0, r4
1231:Drivers/STM32F1xx_HAL_Driver/Src/stm32f1xx_hal_pcd.c ****         ep->xfer_buff += ep->xfer_count;
 1839              		.loc 1 1231 26 view .LVU506
 1840 0364 C2F30902 		ubfx	r2, r2, #0, #10
1232:Drivers/STM32F1xx_HAL_Driver/Src/stm32f1xx_hal_pcd.c ****  
 1841              		.loc 1 1232 23 view .LVU507
 1842 0368 1344     		add	r3, r3, r2
 1843 036a E363     		str	r3, [r4, #60]
1231:Drivers/STM32F1xx_HAL_Driver/Src/stm32f1xx_hal_pcd.c ****         ep->xfer_buff += ep->xfer_count;
 1844              		.loc 1 1231 24 view .LVU508
 1845 036c 6264     		str	r2, [r4, #68]
1232:Drivers/STM32F1xx_HAL_Driver/Src/stm32f1xx_hal_pcd.c ****  
 1846              		.loc 1 1232 9 is_stmt 1 view .LVU509
1235:Drivers/STM32F1xx_HAL_Driver/Src/stm32f1xx_hal_pcd.c ****         
 1847              		.loc 1 1235 9 view .LVU510
 1848 036e FFF7FEFF 		bl	HAL_PCD_DataInStageCallback
 1849              	.LVL131:
1238:Drivers/STM32F1xx_HAL_Driver/Src/stm32f1xx_hal_pcd.c ****         {
 1850              		.loc 1 1238 9 view .LVU511
1238:Drivers/STM32F1xx_HAL_Driver/Src/stm32f1xx_hal_pcd.c ****         {
 1851              		.loc 1 1238 17 is_stmt 0 view .LVU512
 1852 0372 94F82430 		ldrb	r3, [r4, #36]	@ zero_extendqisi2
1238:Drivers/STM32F1xx_HAL_Driver/Src/stm32f1xx_hal_pcd.c ****         {
 1853              		.loc 1 1238 11 view .LVU513
 1854 0376 93B1     		cbz	r3, .L170
1238:Drivers/STM32F1xx_HAL_Driver/Src/stm32f1xx_hal_pcd.c ****         {
ARM GAS  C:\Users\Eemeli\AppData\Local\Temp\cccfLE7k.s 			page 63


 1855              		.loc 1 1238 36 view .LVU514
 1856 0378 236C     		ldr	r3, [r4, #64]
 1857 037a 2268     		ldr	r2, [r4]
 1858 037c 002B     		cmp	r3, #0
 1859 037e 7FF40AAF 		bne	.L93
1240:Drivers/STM32F1xx_HAL_Driver/Src/stm32f1xx_hal_pcd.c ****           hpcd->USB_Address = 0U;
 1860              		.loc 1 1240 11 is_stmt 1 view .LVU515
1240:Drivers/STM32F1xx_HAL_Driver/Src/stm32f1xx_hal_pcd.c ****           hpcd->USB_Address = 0U;
 1861              		.loc 1 1240 40 is_stmt 0 view .LVU516
 1862 0382 94F82410 		ldrb	r1, [r4, #36]	@ zero_extendqisi2
1240:Drivers/STM32F1xx_HAL_Driver/Src/stm32f1xx_hal_pcd.c ****           hpcd->USB_Address = 0U;
 1863              		.loc 1 1240 33 view .LVU517
 1864 0386 41F08001 		orr	r1, r1, #128
 1865 038a A2F84C10 		strh	r1, [r2, #76]	@ movhi
1241:Drivers/STM32F1xx_HAL_Driver/Src/stm32f1xx_hal_pcd.c ****         }
 1866              		.loc 1 1241 11 is_stmt 1 view .LVU518
1241:Drivers/STM32F1xx_HAL_Driver/Src/stm32f1xx_hal_pcd.c ****         }
 1867              		.loc 1 1241 29 is_stmt 0 view .LVU519
 1868 038e 84F82430 		strb	r3, [r4, #36]
 1869 0392 00E7     		b	.L93
 1870              	.LVL132:
 1871              	.L116:
1392:Drivers/STM32F1xx_HAL_Driver/Src/stm32f1xx_hal_pcd.c ****         }
1393:Drivers/STM32F1xx_HAL_Driver/Src/stm32f1xx_hal_pcd.c ****         else
1394:Drivers/STM32F1xx_HAL_Driver/Src/stm32f1xx_hal_pcd.c ****         {
1395:Drivers/STM32F1xx_HAL_Driver/Src/stm32f1xx_hal_pcd.c ****           HAL_PCD_EP_Transmit(hpcd, ep->num, ep->xfer_buff, ep->xfer_len);
 1872              		.loc 1 1395 11 is_stmt 1 view .LVU520
 1873 0394 95F82810 		ldrb	r1, [r5, #40]	@ zero_extendqisi2
 1874 0398 2046     		mov	r0, r4
 1875 039a FFF7FEFF 		bl	HAL_PCD_EP_Transmit
 1876              	.LVL133:
 1877              	.L170:
 1878              		.loc 1 1395 11 is_stmt 0 view .LVU521
 1879 039e 2268     		ldr	r2, [r4]
 1880 03a0 F9E6     		b	.L93
 1881              	.LVL134:
 1882              	.L112:
1363:Drivers/STM32F1xx_HAL_Driver/Src/stm32f1xx_hal_pcd.c ****           {
 1883              		.loc 1 1363 11 is_stmt 1 view .LVU522
1363:Drivers/STM32F1xx_HAL_Driver/Src/stm32f1xx_hal_pcd.c ****           {
 1884              		.loc 1 1363 15 is_stmt 0 view .LVU523
 1885 03a2 97F82830 		ldrb	r3, [r7, #40]	@ zero_extendqisi2
1366:Drivers/STM32F1xx_HAL_Driver/Src/stm32f1xx_hal_pcd.c ****             if (ep->xfer_count != 0U)
 1886              		.loc 1 1366 28 view .LVU524
 1887 03a6 04EB4616 		add	r6, r4, r6, lsl #5
 1888              	.LVL135:
1363:Drivers/STM32F1xx_HAL_Driver/Src/stm32f1xx_hal_pcd.c ****           {
 1889              		.loc 1 1363 15 view .LVU525
 1890 03aa 32F82300 		ldrh	r0, [r2, r3, lsl #2]
 1891 03ae DB00     		lsls	r3, r3, #3
1363:Drivers/STM32F1xx_HAL_Driver/Src/stm32f1xx_hal_pcd.c ****           {
 1892              		.loc 1 1363 14 view .LVU526
 1893 03b0 10F0400F 		tst	r0, #64
1366:Drivers/STM32F1xx_HAL_Driver/Src/stm32f1xx_hal_pcd.c ****             if (ep->xfer_count != 0U)
 1894              		.loc 1 1366 30 view .LVU527
 1895 03b4 B2F85000 		ldrh	r0, [r2, #80]
 1896 03b8 0344     		add	r3, r3, r0
ARM GAS  C:\Users\Eemeli\AppData\Local\Temp\cccfLE7k.s 			page 64


1363:Drivers/STM32F1xx_HAL_Driver/Src/stm32f1xx_hal_pcd.c ****           {
 1897              		.loc 1 1363 14 view .LVU528
 1898 03ba 4FD0     		beq	.L114
1366:Drivers/STM32F1xx_HAL_Driver/Src/stm32f1xx_hal_pcd.c ****             if (ep->xfer_count != 0U)
 1899              		.loc 1 1366 13 is_stmt 1 view .LVU529
1366:Drivers/STM32F1xx_HAL_Driver/Src/stm32f1xx_hal_pcd.c ****             if (ep->xfer_count != 0U)
 1900              		.loc 1 1366 30 is_stmt 0 view .LVU530
 1901 03bc 0233     		adds	r3, r3, #2
 1902 03be 51F81330 		ldr	r3, [r1, r3, lsl #1]
 1903 03c2 C3F30903 		ubfx	r3, r3, #0, #10
1366:Drivers/STM32F1xx_HAL_Driver/Src/stm32f1xx_hal_pcd.c ****             if (ep->xfer_count != 0U)
 1904              		.loc 1 1366 28 view .LVU531
 1905 03c6 7364     		str	r3, [r6, #68]
1367:Drivers/STM32F1xx_HAL_Driver/Src/stm32f1xx_hal_pcd.c ****             {
 1906              		.loc 1 1367 13 is_stmt 1 view .LVU532
1367:Drivers/STM32F1xx_HAL_Driver/Src/stm32f1xx_hal_pcd.c ****             {
 1907              		.loc 1 1367 16 is_stmt 0 view .LVU533
 1908 03c8 002B     		cmp	r3, #0
 1909 03ca 4FD0     		beq	.L115
1369:Drivers/STM32F1xx_HAL_Driver/Src/stm32f1xx_hal_pcd.c ****             }
 1910              		.loc 1 1369 15 is_stmt 1 view .LVU534
 1911 03cc 1046     		mov	r0, r2
 1912 03ce F96B     		ldr	r1, [r7, #60]
 1913 03d0 FA8D     		ldrh	r2, [r7, #46]
 1914 03d2 FFF7FEFF 		bl	USB_WritePMA
 1915              	.LVL136:
 1916 03d6 2268     		ldr	r2, [r4]
 1917 03d8 02F58061 		add	r1, r2, #1024
 1918 03dc 46E0     		b	.L115
 1919              	.L176:
1257:Drivers/STM32F1xx_HAL_Driver/Src/stm32f1xx_hal_pcd.c ****           USB_ReadPMA(hpcd->Instance, (uint8_t*)hpcd->Setup ,ep->pmaadress , ep->xfer_count);      
 1920              		.loc 1 1257 11 view .LVU535
1257:Drivers/STM32F1xx_HAL_Driver/Src/stm32f1xx_hal_pcd.c ****           USB_ReadPMA(hpcd->Instance, (uint8_t*)hpcd->Setup ,ep->pmaadress , ep->xfer_count);      
 1921              		.loc 1 1257 28 is_stmt 0 view .LVU536
 1922 03de B2F85030 		ldrh	r3, [r2, #80]
 1923 03e2 94F82812 		ldrb	r1, [r4, #552]	@ zero_extendqisi2
1258:Drivers/STM32F1xx_HAL_Driver/Src/stm32f1xx_hal_pcd.c ****           /* SETUP bit kept frozen while CTR_RX = 1*/ 
 1924              		.loc 1 1258 11 view .LVU537
 1925 03e6 1046     		mov	r0, r2
1257:Drivers/STM32F1xx_HAL_Driver/Src/stm32f1xx_hal_pcd.c ****           USB_ReadPMA(hpcd->Instance, (uint8_t*)hpcd->Setup ,ep->pmaadress , ep->xfer_count);      
 1926              		.loc 1 1257 28 view .LVU538
 1927 03e8 03EBC103 		add	r3, r3, r1, lsl #3
 1928 03ec 02EB4302 		add	r2, r2, r3, lsl #1
 1929 03f0 D2F80C34 		ldr	r3, [r2, #1036]
1258:Drivers/STM32F1xx_HAL_Driver/Src/stm32f1xx_hal_pcd.c ****           /* SETUP bit kept frozen while CTR_RX = 1*/ 
 1930              		.loc 1 1258 11 view .LVU539
 1931 03f4 04F22C41 		addw	r1, r4, #1068
1257:Drivers/STM32F1xx_HAL_Driver/Src/stm32f1xx_hal_pcd.c ****           USB_ReadPMA(hpcd->Instance, (uint8_t*)hpcd->Setup ,ep->pmaadress , ep->xfer_count);      
 1932              		.loc 1 1257 28 view .LVU540
 1933 03f8 C3F30903 		ubfx	r3, r3, #0, #10
1258:Drivers/STM32F1xx_HAL_Driver/Src/stm32f1xx_hal_pcd.c ****           /* SETUP bit kept frozen while CTR_RX = 1*/ 
 1934              		.loc 1 1258 11 view .LVU541
 1935 03fc B4F82C22 		ldrh	r2, [r4, #556]
1257:Drivers/STM32F1xx_HAL_Driver/Src/stm32f1xx_hal_pcd.c ****           USB_ReadPMA(hpcd->Instance, (uint8_t*)hpcd->Setup ,ep->pmaadress , ep->xfer_count);      
 1936              		.loc 1 1257 26 view .LVU542
 1937 0400 C4F84432 		str	r3, [r4, #580]
1258:Drivers/STM32F1xx_HAL_Driver/Src/stm32f1xx_hal_pcd.c ****           /* SETUP bit kept frozen while CTR_RX = 1*/ 
ARM GAS  C:\Users\Eemeli\AppData\Local\Temp\cccfLE7k.s 			page 65


 1938              		.loc 1 1258 11 is_stmt 1 view .LVU543
 1939 0404 FFF7FEFF 		bl	USB_ReadPMA
 1940              	.LVL137:
1260:Drivers/STM32F1xx_HAL_Driver/Src/stm32f1xx_hal_pcd.c ****           
 1941              		.loc 1 1260 11 view .LVU544
 1942 0408 40F68F73 		movw	r3, #3983
 1943 040c 2268     		ldr	r2, [r4]
1263:Drivers/STM32F1xx_HAL_Driver/Src/stm32f1xx_hal_pcd.c ****         }
 1944              		.loc 1 1263 11 is_stmt 0 view .LVU545
 1945 040e 2046     		mov	r0, r4
1260:Drivers/STM32F1xx_HAL_Driver/Src/stm32f1xx_hal_pcd.c ****           
 1946              		.loc 1 1260 11 view .LVU546
 1947 0410 1188     		ldrh	r1, [r2]
 1948 0412 0B40     		ands	r3, r3, r1
 1949 0414 1380     		strh	r3, [r2]	@ movhi
1263:Drivers/STM32F1xx_HAL_Driver/Src/stm32f1xx_hal_pcd.c ****         }
 1950              		.loc 1 1263 11 is_stmt 1 view .LVU547
 1951 0416 FFF7FEFF 		bl	HAL_PCD_SetupStageCallback
 1952              	.LVL138:
 1953 041a 2268     		ldr	r2, [r4]
 1954 041c BBE6     		b	.L93
 1955              	.LVL139:
 1956              	.L105:
1309:Drivers/STM32F1xx_HAL_Driver/Src/stm32f1xx_hal_pcd.c ****           {
 1957              		.loc 1 1309 11 view .LVU548
1309:Drivers/STM32F1xx_HAL_Driver/Src/stm32f1xx_hal_pcd.c ****           {
 1958              		.loc 1 1309 15 is_stmt 0 view .LVU549
 1959 041e 98F82832 		ldrb	r3, [r8, #552]	@ zero_extendqisi2
 1960 0422 32F82370 		ldrh	r7, [r2, r3, lsl #2]
 1961 0426 02EB8301 		add	r1, r2, r3, lsl #2
1309:Drivers/STM32F1xx_HAL_Driver/Src/stm32f1xx_hal_pcd.c ****           {
 1962              		.loc 1 1309 14 view .LVU550
 1963 042a 17F4804F 		tst	r7, #16384
1312:Drivers/STM32F1xx_HAL_Driver/Src/stm32f1xx_hal_pcd.c ****             if (count != 0U)
 1964              		.loc 1 1312 21 view .LVU551
 1965 042e B2F85070 		ldrh	r7, [r2, #80]
 1966 0432 4FEAC303 		lsl	r3, r3, #3
 1967 0436 3B44     		add	r3, r3, r7
1309:Drivers/STM32F1xx_HAL_Driver/Src/stm32f1xx_hal_pcd.c ****           {
 1968              		.loc 1 1309 14 view .LVU552
 1969 0438 27D1     		bne	.L183
1321:Drivers/STM32F1xx_HAL_Driver/Src/stm32f1xx_hal_pcd.c ****             if (count != 0U)
 1970              		.loc 1 1321 13 is_stmt 1 view .LVU553
1321:Drivers/STM32F1xx_HAL_Driver/Src/stm32f1xx_hal_pcd.c ****             if (count != 0U)
 1971              		.loc 1 1321 21 is_stmt 0 view .LVU554
 1972 043a 0633     		adds	r3, r3, #6
 1973 043c 50F81370 		ldr	r7, [r0, r3, lsl #1]
1321:Drivers/STM32F1xx_HAL_Driver/Src/stm32f1xx_hal_pcd.c ****             if (count != 0U)
 1974              		.loc 1 1321 19 view .LVU555
 1975 0440 C7F30907 		ubfx	r7, r7, #0, #10
 1976              	.LVL140:
1322:Drivers/STM32F1xx_HAL_Driver/Src/stm32f1xx_hal_pcd.c ****             {
 1977              		.loc 1 1322 13 is_stmt 1 view .LVU556
1322:Drivers/STM32F1xx_HAL_Driver/Src/stm32f1xx_hal_pcd.c ****             {
 1978              		.loc 1 1322 16 is_stmt 0 view .LVU557
 1979 0444 002F     		cmp	r7, #0
 1980 0446 74D1     		bne	.L184
ARM GAS  C:\Users\Eemeli\AppData\Local\Temp\cccfLE7k.s 			page 66


 1981              	.L108:
1327:Drivers/STM32F1xx_HAL_Driver/Src/stm32f1xx_hal_pcd.c ****         }
 1982              		.loc 1 1327 11 is_stmt 1 view .LVU558
1327:Drivers/STM32F1xx_HAL_Driver/Src/stm32f1xx_hal_pcd.c ****         }
 1983              		.loc 1 1327 11 view .LVU559
 1984 0448 40F60F73 		movw	r3, #3855
 1985 044c 0A88     		ldrh	r2, [r1]
 1986 044e 1340     		ands	r3, r3, r2
 1987 0450 43F40043 		orr	r3, r3, #32768
 1988 0454 43F0C003 		orr	r3, r3, #192
 1989 0458 0B80     		strh	r3, [r1]	@ movhi
 1990 045a 5AE7     		b	.L106
 1991              	.LVL141:
 1992              	.L114:
1375:Drivers/STM32F1xx_HAL_Driver/Src/stm32f1xx_hal_pcd.c ****             if (ep->xfer_count != 0U)
 1993              		.loc 1 1375 13 view .LVU560
1375:Drivers/STM32F1xx_HAL_Driver/Src/stm32f1xx_hal_pcd.c ****             if (ep->xfer_count != 0U)
 1994              		.loc 1 1375 30 is_stmt 0 view .LVU561
 1995 045c 0633     		adds	r3, r3, #6
 1996 045e 51F81330 		ldr	r3, [r1, r3, lsl #1]
 1997 0462 C3F30903 		ubfx	r3, r3, #0, #10
1375:Drivers/STM32F1xx_HAL_Driver/Src/stm32f1xx_hal_pcd.c ****             if (ep->xfer_count != 0U)
 1998              		.loc 1 1375 28 view .LVU562
 1999 0466 7364     		str	r3, [r6, #68]
1376:Drivers/STM32F1xx_HAL_Driver/Src/stm32f1xx_hal_pcd.c ****             {
 2000              		.loc 1 1376 13 is_stmt 1 view .LVU563
1376:Drivers/STM32F1xx_HAL_Driver/Src/stm32f1xx_hal_pcd.c ****             {
 2001              		.loc 1 1376 16 is_stmt 0 view .LVU564
 2002 0468 002B     		cmp	r3, #0
 2003 046a 59D1     		bne	.L185
 2004              	.L115:
1381:Drivers/STM32F1xx_HAL_Driver/Src/stm32f1xx_hal_pcd.c ****         }
 2005              		.loc 1 1381 11 is_stmt 1 view .LVU565
1381:Drivers/STM32F1xx_HAL_Driver/Src/stm32f1xx_hal_pcd.c ****         }
 2006              		.loc 1 1381 11 view .LVU566
1381:Drivers/STM32F1xx_HAL_Driver/Src/stm32f1xx_hal_pcd.c ****         }
 2007              		.loc 1 1381 11 view .LVU567
 2008 046c 40F60F73 		movw	r3, #3855
 2009 0470 6019     		adds	r0, r4, r5
 2010 0472 90F82800 		ldrb	r0, [r0, #40]	@ zero_extendqisi2
 2011 0476 32F82060 		ldrh	r6, [r2, r0, lsl #2]
 2012 047a 3340     		ands	r3, r3, r6
 2013 047c 43F44043 		orr	r3, r3, #49152
 2014 0480 43F08003 		orr	r3, r3, #128
 2015 0484 22F82030 		strh	r3, [r2, r0, lsl #2]	@ movhi
 2016 0488 0BE7     		b	.L113
 2017              	.LVL142:
 2018              	.L183:
1312:Drivers/STM32F1xx_HAL_Driver/Src/stm32f1xx_hal_pcd.c ****             if (count != 0U)
 2019              		.loc 1 1312 13 view .LVU568
1312:Drivers/STM32F1xx_HAL_Driver/Src/stm32f1xx_hal_pcd.c ****             if (count != 0U)
 2020              		.loc 1 1312 21 is_stmt 0 view .LVU569
 2021 048a 0233     		adds	r3, r3, #2
 2022 048c 50F81370 		ldr	r7, [r0, r3, lsl #1]
1312:Drivers/STM32F1xx_HAL_Driver/Src/stm32f1xx_hal_pcd.c ****             if (count != 0U)
 2023              		.loc 1 1312 19 view .LVU570
 2024 0490 C7F30907 		ubfx	r7, r7, #0, #10
ARM GAS  C:\Users\Eemeli\AppData\Local\Temp\cccfLE7k.s 			page 67


 2025              	.LVL143:
1313:Drivers/STM32F1xx_HAL_Driver/Src/stm32f1xx_hal_pcd.c ****             {
 2026              		.loc 1 1313 13 is_stmt 1 view .LVU571
1313:Drivers/STM32F1xx_HAL_Driver/Src/stm32f1xx_hal_pcd.c ****             {
 2027              		.loc 1 1313 16 is_stmt 0 view .LVU572
 2028 0494 002F     		cmp	r7, #0
 2029 0496 D7D0     		beq	.L108
1315:Drivers/STM32F1xx_HAL_Driver/Src/stm32f1xx_hal_pcd.c ****             }
 2030              		.loc 1 1315 15 is_stmt 1 view .LVU573
 2031 0498 3B46     		mov	r3, r7
 2032 049a 1046     		mov	r0, r2
 2033 049c B8F82E22 		ldrh	r2, [r8, #558]
 2034              	.L169:
1324:Drivers/STM32F1xx_HAL_Driver/Src/stm32f1xx_hal_pcd.c ****             }
 2035              		.loc 1 1324 15 is_stmt 0 view .LVU574
 2036 04a0 D8F83C12 		ldr	r1, [r8, #572]
 2037 04a4 FFF7FEFF 		bl	USB_ReadPMA
 2038              	.LVL144:
 2039 04a8 98F82832 		ldrb	r3, [r8, #552]	@ zero_extendqisi2
 2040 04ac 2168     		ldr	r1, [r4]
 2041 04ae 01EB8301 		add	r1, r1, r3, lsl #2
 2042 04b2 C9E7     		b	.L108
 2043              	.LVL145:
 2044              	.L178:
 2045              	.LBB24:
 2046              	.LBB21:
1281:Drivers/STM32F1xx_HAL_Driver/Src/stm32f1xx_hal_pcd.c ****           PCD_SET_EP_RX_STATUS(hpcd->Instance, PCD_ENDP0, USB_EP_RX_VALID);
 2047              		.loc 1 1281 11 is_stmt 1 view .LVU575
 2048 04b4 C1F34F10 		ubfx	r0, r1, #5, #16
 2049              	.LVL146:
1281:Drivers/STM32F1xx_HAL_Driver/Src/stm32f1xx_hal_pcd.c ****           PCD_SET_EP_RX_STATUS(hpcd->Instance, PCD_ENDP0, USB_EP_RX_VALID);
 2050              		.loc 1 1281 11 view .LVU576
 2051 04b8 CF06     		lsls	r7, r1, #27
1281:Drivers/STM32F1xx_HAL_Driver/Src/stm32f1xx_hal_pcd.c ****           PCD_SET_EP_RX_STATUS(hpcd->Instance, PCD_ENDP0, USB_EP_RX_VALID);
 2052              		.loc 1 1281 11 view .LVU577
 2053 04ba 04BF     		itt	eq
 2054 04bc 00F1FF30 		addeq	r0, r0, #-1
 2055              	.LVL147:
1281:Drivers/STM32F1xx_HAL_Driver/Src/stm32f1xx_hal_pcd.c ****           PCD_SET_EP_RX_STATUS(hpcd->Instance, PCD_ENDP0, USB_EP_RX_VALID);
 2056              		.loc 1 1281 11 is_stmt 0 view .LVU578
 2057 04c0 80B2     		uxtheq	r0, r0
 2058              	.LVL148:
1281:Drivers/STM32F1xx_HAL_Driver/Src/stm32f1xx_hal_pcd.c ****           PCD_SET_EP_RX_STATUS(hpcd->Instance, PCD_ENDP0, USB_EP_RX_VALID);
