ARM GAS  C:\Users\Eemeli\AppData\Local\Temp\ccp515TO.s 			page 1


   1              		.cpu cortex-m3
   2              		.eabi_attribute 20, 1
   3              		.eabi_attribute 21, 1
   4              		.eabi_attribute 23, 3
   5              		.eabi_attribute 24, 1
   6              		.eabi_attribute 25, 1
   7              		.eabi_attribute 26, 1
   8              		.eabi_attribute 30, 2
   9              		.eabi_attribute 34, 1
  10              		.eabi_attribute 18, 4
  11              		.file	"usbd_hid.c"
  12              		.text
  13              	.Ltext0:
  14              		.cfi_sections	.debug_frame
  15              		.section	.text.USBD_HID_GetCfgDesc,"ax",%progbits
  16              		.align	1
  17              		.p2align 2,,3
  18              		.arch armv7-m
  19              		.syntax unified
  20              		.thumb
  21              		.thumb_func
  22              		.fpu softvfp
  24              	USBD_HID_GetCfgDesc:
  25              	.LVL0:
  26              	.LFB71:
  27              		.file 1 "Middlewares/ST/STM32_USB_Device_Library/Class/HID/Src/usbd_hid.c"
   1:Middlewares/ST/STM32_USB_Device_Library/Class/HID/Src/usbd_hid.c **** /**
   2:Middlewares/ST/STM32_USB_Device_Library/Class/HID/Src/usbd_hid.c ****   ******************************************************************************
   3:Middlewares/ST/STM32_USB_Device_Library/Class/HID/Src/usbd_hid.c ****   * @file    usbd_hid.c
   4:Middlewares/ST/STM32_USB_Device_Library/Class/HID/Src/usbd_hid.c ****   * @author  MCD Application Team
   5:Middlewares/ST/STM32_USB_Device_Library/Class/HID/Src/usbd_hid.c ****   * @version V2.4.2
   6:Middlewares/ST/STM32_USB_Device_Library/Class/HID/Src/usbd_hid.c ****   * @date    11-December-2015
   7:Middlewares/ST/STM32_USB_Device_Library/Class/HID/Src/usbd_hid.c ****   * @brief   This file provides the HID core functions.
   8:Middlewares/ST/STM32_USB_Device_Library/Class/HID/Src/usbd_hid.c ****   *
   9:Middlewares/ST/STM32_USB_Device_Library/Class/HID/Src/usbd_hid.c ****   * @verbatim
  10:Middlewares/ST/STM32_USB_Device_Library/Class/HID/Src/usbd_hid.c ****   *      
  11:Middlewares/ST/STM32_USB_Device_Library/Class/HID/Src/usbd_hid.c ****   *          ===================================================================      
  12:Middlewares/ST/STM32_USB_Device_Library/Class/HID/Src/usbd_hid.c ****   *                                HID Class  Description
  13:Middlewares/ST/STM32_USB_Device_Library/Class/HID/Src/usbd_hid.c ****   *          =================================================================== 
  14:Middlewares/ST/STM32_USB_Device_Library/Class/HID/Src/usbd_hid.c ****   *           This module manages the HID class V1.11 following the "Device Class Definition
  15:Middlewares/ST/STM32_USB_Device_Library/Class/HID/Src/usbd_hid.c ****   *           for Human Interface Devices (HID) Version 1.11 Jun 27, 2001".
  16:Middlewares/ST/STM32_USB_Device_Library/Class/HID/Src/usbd_hid.c ****   *           This driver implements the following aspects of the specification:
  17:Middlewares/ST/STM32_USB_Device_Library/Class/HID/Src/usbd_hid.c ****   *             - The Boot Interface Subclass
  18:Middlewares/ST/STM32_USB_Device_Library/Class/HID/Src/usbd_hid.c ****   *             - The Mouse protocol
  19:Middlewares/ST/STM32_USB_Device_Library/Class/HID/Src/usbd_hid.c ****   *             - Usage Page : Generic Desktop
  20:Middlewares/ST/STM32_USB_Device_Library/Class/HID/Src/usbd_hid.c ****   *             - Usage : Joystick
  21:Middlewares/ST/STM32_USB_Device_Library/Class/HID/Src/usbd_hid.c ****   *             - Collection : Application 
  22:Middlewares/ST/STM32_USB_Device_Library/Class/HID/Src/usbd_hid.c ****   *      
  23:Middlewares/ST/STM32_USB_Device_Library/Class/HID/Src/usbd_hid.c ****   * @note     In HS mode and when the DMA is used, all variables and data structures
  24:Middlewares/ST/STM32_USB_Device_Library/Class/HID/Src/usbd_hid.c ****   *           dealing with the DMA during the transaction process should be 32-bit aligned.
  25:Middlewares/ST/STM32_USB_Device_Library/Class/HID/Src/usbd_hid.c ****   *           
  26:Middlewares/ST/STM32_USB_Device_Library/Class/HID/Src/usbd_hid.c ****   *      
  27:Middlewares/ST/STM32_USB_Device_Library/Class/HID/Src/usbd_hid.c ****   *  @endverbatim
  28:Middlewares/ST/STM32_USB_Device_Library/Class/HID/Src/usbd_hid.c ****   *
  29:Middlewares/ST/STM32_USB_Device_Library/Class/HID/Src/usbd_hid.c ****   ******************************************************************************
  30:Middlewares/ST/STM32_USB_Device_Library/Class/HID/Src/usbd_hid.c ****   * @attention
  31:Middlewares/ST/STM32_USB_Device_Library/Class/HID/Src/usbd_hid.c ****   *
ARM GAS  C:\Users\Eemeli\AppData\Local\Temp\ccp515TO.s 			page 2


  32:Middlewares/ST/STM32_USB_Device_Library/Class/HID/Src/usbd_hid.c ****   * <h2><center>&copy; COPYRIGHT 2015 STMicroelectronics</center></h2>
  33:Middlewares/ST/STM32_USB_Device_Library/Class/HID/Src/usbd_hid.c ****   *
  34:Middlewares/ST/STM32_USB_Device_Library/Class/HID/Src/usbd_hid.c ****   * Licensed under MCD-ST Liberty SW License Agreement V2, (the "License");
  35:Middlewares/ST/STM32_USB_Device_Library/Class/HID/Src/usbd_hid.c ****   * You may not use this file except in compliance with the License.
  36:Middlewares/ST/STM32_USB_Device_Library/Class/HID/Src/usbd_hid.c ****   * You may obtain a copy of the License at:
  37:Middlewares/ST/STM32_USB_Device_Library/Class/HID/Src/usbd_hid.c ****   *
  38:Middlewares/ST/STM32_USB_Device_Library/Class/HID/Src/usbd_hid.c ****   *        http://www.st.com/software_license_agreement_liberty_v2
  39:Middlewares/ST/STM32_USB_Device_Library/Class/HID/Src/usbd_hid.c ****   *
  40:Middlewares/ST/STM32_USB_Device_Library/Class/HID/Src/usbd_hid.c ****   * Unless required by applicable law or agreed to in writing, software 
  41:Middlewares/ST/STM32_USB_Device_Library/Class/HID/Src/usbd_hid.c ****   * distributed under the License is distributed on an "AS IS" BASIS, 
  42:Middlewares/ST/STM32_USB_Device_Library/Class/HID/Src/usbd_hid.c ****   * WITHOUT WARRANTIES OR CONDITIONS OF ANY KIND, either express or implied.
  43:Middlewares/ST/STM32_USB_Device_Library/Class/HID/Src/usbd_hid.c ****   * See the License for the specific language governing permissions and
  44:Middlewares/ST/STM32_USB_Device_Library/Class/HID/Src/usbd_hid.c ****   * limitations under the License.
  45:Middlewares/ST/STM32_USB_Device_Library/Class/HID/Src/usbd_hid.c ****   *
  46:Middlewares/ST/STM32_USB_Device_Library/Class/HID/Src/usbd_hid.c ****   ******************************************************************************
  47:Middlewares/ST/STM32_USB_Device_Library/Class/HID/Src/usbd_hid.c ****   */ 
  48:Middlewares/ST/STM32_USB_Device_Library/Class/HID/Src/usbd_hid.c **** 
  49:Middlewares/ST/STM32_USB_Device_Library/Class/HID/Src/usbd_hid.c **** /* Includes ------------------------------------------------------------------*/
  50:Middlewares/ST/STM32_USB_Device_Library/Class/HID/Src/usbd_hid.c **** #include "usbd_hid.h"
  51:Middlewares/ST/STM32_USB_Device_Library/Class/HID/Src/usbd_hid.c **** #include "usbd_desc.h"
  52:Middlewares/ST/STM32_USB_Device_Library/Class/HID/Src/usbd_hid.c **** #include "usbd_ctlreq.h"
  53:Middlewares/ST/STM32_USB_Device_Library/Class/HID/Src/usbd_hid.c **** 
  54:Middlewares/ST/STM32_USB_Device_Library/Class/HID/Src/usbd_hid.c **** 
  55:Middlewares/ST/STM32_USB_Device_Library/Class/HID/Src/usbd_hid.c **** /** @addtogroup STM32_USB_DEVICE_LIBRARY
  56:Middlewares/ST/STM32_USB_Device_Library/Class/HID/Src/usbd_hid.c ****   * @{
  57:Middlewares/ST/STM32_USB_Device_Library/Class/HID/Src/usbd_hid.c ****   */
  58:Middlewares/ST/STM32_USB_Device_Library/Class/HID/Src/usbd_hid.c **** 
  59:Middlewares/ST/STM32_USB_Device_Library/Class/HID/Src/usbd_hid.c **** 
  60:Middlewares/ST/STM32_USB_Device_Library/Class/HID/Src/usbd_hid.c **** /** @defgroup USBD_HID 
  61:Middlewares/ST/STM32_USB_Device_Library/Class/HID/Src/usbd_hid.c ****   * @brief usbd core module
  62:Middlewares/ST/STM32_USB_Device_Library/Class/HID/Src/usbd_hid.c ****   * @{
  63:Middlewares/ST/STM32_USB_Device_Library/Class/HID/Src/usbd_hid.c ****   */ 
  64:Middlewares/ST/STM32_USB_Device_Library/Class/HID/Src/usbd_hid.c **** 
  65:Middlewares/ST/STM32_USB_Device_Library/Class/HID/Src/usbd_hid.c **** /** @defgroup USBD_HID_Private_TypesDefinitions
  66:Middlewares/ST/STM32_USB_Device_Library/Class/HID/Src/usbd_hid.c ****   * @{
  67:Middlewares/ST/STM32_USB_Device_Library/Class/HID/Src/usbd_hid.c ****   */ 
  68:Middlewares/ST/STM32_USB_Device_Library/Class/HID/Src/usbd_hid.c **** /**
  69:Middlewares/ST/STM32_USB_Device_Library/Class/HID/Src/usbd_hid.c ****   * @}
  70:Middlewares/ST/STM32_USB_Device_Library/Class/HID/Src/usbd_hid.c ****   */ 
  71:Middlewares/ST/STM32_USB_Device_Library/Class/HID/Src/usbd_hid.c **** 
  72:Middlewares/ST/STM32_USB_Device_Library/Class/HID/Src/usbd_hid.c **** 
  73:Middlewares/ST/STM32_USB_Device_Library/Class/HID/Src/usbd_hid.c **** /** @defgroup USBD_HID_Private_Defines
  74:Middlewares/ST/STM32_USB_Device_Library/Class/HID/Src/usbd_hid.c ****   * @{
  75:Middlewares/ST/STM32_USB_Device_Library/Class/HID/Src/usbd_hid.c ****   */ 
  76:Middlewares/ST/STM32_USB_Device_Library/Class/HID/Src/usbd_hid.c **** 
  77:Middlewares/ST/STM32_USB_Device_Library/Class/HID/Src/usbd_hid.c **** /**
  78:Middlewares/ST/STM32_USB_Device_Library/Class/HID/Src/usbd_hid.c ****   * @}
  79:Middlewares/ST/STM32_USB_Device_Library/Class/HID/Src/usbd_hid.c ****   */ 
  80:Middlewares/ST/STM32_USB_Device_Library/Class/HID/Src/usbd_hid.c **** 
  81:Middlewares/ST/STM32_USB_Device_Library/Class/HID/Src/usbd_hid.c **** 
  82:Middlewares/ST/STM32_USB_Device_Library/Class/HID/Src/usbd_hid.c **** /** @defgroup USBD_HID_Private_Macros
  83:Middlewares/ST/STM32_USB_Device_Library/Class/HID/Src/usbd_hid.c ****   * @{
  84:Middlewares/ST/STM32_USB_Device_Library/Class/HID/Src/usbd_hid.c ****   */ 
  85:Middlewares/ST/STM32_USB_Device_Library/Class/HID/Src/usbd_hid.c **** /**
  86:Middlewares/ST/STM32_USB_Device_Library/Class/HID/Src/usbd_hid.c ****   * @}
  87:Middlewares/ST/STM32_USB_Device_Library/Class/HID/Src/usbd_hid.c ****   */ 
  88:Middlewares/ST/STM32_USB_Device_Library/Class/HID/Src/usbd_hid.c **** 
ARM GAS  C:\Users\Eemeli\AppData\Local\Temp\ccp515TO.s 			page 3


  89:Middlewares/ST/STM32_USB_Device_Library/Class/HID/Src/usbd_hid.c **** 
  90:Middlewares/ST/STM32_USB_Device_Library/Class/HID/Src/usbd_hid.c **** 
  91:Middlewares/ST/STM32_USB_Device_Library/Class/HID/Src/usbd_hid.c **** 
  92:Middlewares/ST/STM32_USB_Device_Library/Class/HID/Src/usbd_hid.c **** /** @defgroup USBD_HID_Private_FunctionPrototypes
  93:Middlewares/ST/STM32_USB_Device_Library/Class/HID/Src/usbd_hid.c ****   * @{
  94:Middlewares/ST/STM32_USB_Device_Library/Class/HID/Src/usbd_hid.c ****   */
  95:Middlewares/ST/STM32_USB_Device_Library/Class/HID/Src/usbd_hid.c **** 
  96:Middlewares/ST/STM32_USB_Device_Library/Class/HID/Src/usbd_hid.c **** 
  97:Middlewares/ST/STM32_USB_Device_Library/Class/HID/Src/usbd_hid.c **** static uint8_t  USBD_HID_Init (USBD_HandleTypeDef *pdev, 
  98:Middlewares/ST/STM32_USB_Device_Library/Class/HID/Src/usbd_hid.c ****                                uint8_t cfgidx);
  99:Middlewares/ST/STM32_USB_Device_Library/Class/HID/Src/usbd_hid.c **** 
 100:Middlewares/ST/STM32_USB_Device_Library/Class/HID/Src/usbd_hid.c **** static uint8_t  USBD_HID_DeInit (USBD_HandleTypeDef *pdev, 
 101:Middlewares/ST/STM32_USB_Device_Library/Class/HID/Src/usbd_hid.c ****                                  uint8_t cfgidx);
 102:Middlewares/ST/STM32_USB_Device_Library/Class/HID/Src/usbd_hid.c **** 
 103:Middlewares/ST/STM32_USB_Device_Library/Class/HID/Src/usbd_hid.c **** static uint8_t  USBD_HID_Setup (USBD_HandleTypeDef *pdev, 
 104:Middlewares/ST/STM32_USB_Device_Library/Class/HID/Src/usbd_hid.c ****                                 USBD_SetupReqTypedef *req);
 105:Middlewares/ST/STM32_USB_Device_Library/Class/HID/Src/usbd_hid.c **** 
 106:Middlewares/ST/STM32_USB_Device_Library/Class/HID/Src/usbd_hid.c **** static uint8_t  *USBD_HID_GetCfgDesc (uint16_t *length);
 107:Middlewares/ST/STM32_USB_Device_Library/Class/HID/Src/usbd_hid.c **** 
 108:Middlewares/ST/STM32_USB_Device_Library/Class/HID/Src/usbd_hid.c **** static uint8_t  *USBD_HID_GetDeviceQualifierDesc (uint16_t *length);
 109:Middlewares/ST/STM32_USB_Device_Library/Class/HID/Src/usbd_hid.c **** 
 110:Middlewares/ST/STM32_USB_Device_Library/Class/HID/Src/usbd_hid.c **** static uint8_t  USBD_HID_DataIn (USBD_HandleTypeDef *pdev, uint8_t epnum);
 111:Middlewares/ST/STM32_USB_Device_Library/Class/HID/Src/usbd_hid.c **** /**
 112:Middlewares/ST/STM32_USB_Device_Library/Class/HID/Src/usbd_hid.c ****   * @}
 113:Middlewares/ST/STM32_USB_Device_Library/Class/HID/Src/usbd_hid.c ****   */ 
 114:Middlewares/ST/STM32_USB_Device_Library/Class/HID/Src/usbd_hid.c **** 
 115:Middlewares/ST/STM32_USB_Device_Library/Class/HID/Src/usbd_hid.c **** /** @defgroup USBD_HID_Private_Variables
 116:Middlewares/ST/STM32_USB_Device_Library/Class/HID/Src/usbd_hid.c ****   * @{
 117:Middlewares/ST/STM32_USB_Device_Library/Class/HID/Src/usbd_hid.c ****   */ 
 118:Middlewares/ST/STM32_USB_Device_Library/Class/HID/Src/usbd_hid.c **** 
 119:Middlewares/ST/STM32_USB_Device_Library/Class/HID/Src/usbd_hid.c **** USBD_ClassTypeDef  USBD_HID = 
 120:Middlewares/ST/STM32_USB_Device_Library/Class/HID/Src/usbd_hid.c **** {
 121:Middlewares/ST/STM32_USB_Device_Library/Class/HID/Src/usbd_hid.c ****   USBD_HID_Init,
 122:Middlewares/ST/STM32_USB_Device_Library/Class/HID/Src/usbd_hid.c ****   USBD_HID_DeInit,
 123:Middlewares/ST/STM32_USB_Device_Library/Class/HID/Src/usbd_hid.c ****   USBD_HID_Setup,
 124:Middlewares/ST/STM32_USB_Device_Library/Class/HID/Src/usbd_hid.c ****   NULL, /*EP0_TxSent*/  
 125:Middlewares/ST/STM32_USB_Device_Library/Class/HID/Src/usbd_hid.c ****   NULL, /*EP0_RxReady*/
 126:Middlewares/ST/STM32_USB_Device_Library/Class/HID/Src/usbd_hid.c ****   USBD_HID_DataIn, /*DataIn*/
 127:Middlewares/ST/STM32_USB_Device_Library/Class/HID/Src/usbd_hid.c ****   NULL, /*DataOut*/
 128:Middlewares/ST/STM32_USB_Device_Library/Class/HID/Src/usbd_hid.c ****   NULL, /*SOF */
 129:Middlewares/ST/STM32_USB_Device_Library/Class/HID/Src/usbd_hid.c ****   NULL,
 130:Middlewares/ST/STM32_USB_Device_Library/Class/HID/Src/usbd_hid.c ****   NULL,      
 131:Middlewares/ST/STM32_USB_Device_Library/Class/HID/Src/usbd_hid.c ****   USBD_HID_GetCfgDesc,
 132:Middlewares/ST/STM32_USB_Device_Library/Class/HID/Src/usbd_hid.c ****   USBD_HID_GetCfgDesc, 
 133:Middlewares/ST/STM32_USB_Device_Library/Class/HID/Src/usbd_hid.c ****   USBD_HID_GetCfgDesc,
 134:Middlewares/ST/STM32_USB_Device_Library/Class/HID/Src/usbd_hid.c ****   USBD_HID_GetDeviceQualifierDesc,
 135:Middlewares/ST/STM32_USB_Device_Library/Class/HID/Src/usbd_hid.c **** };
 136:Middlewares/ST/STM32_USB_Device_Library/Class/HID/Src/usbd_hid.c **** 
 137:Middlewares/ST/STM32_USB_Device_Library/Class/HID/Src/usbd_hid.c **** /* USB HID device Configuration Descriptor */
 138:Middlewares/ST/STM32_USB_Device_Library/Class/HID/Src/usbd_hid.c **** __ALIGN_BEGIN static uint8_t USBD_HID_CfgDesc[USB_HID_CONFIG_DESC_SIZ]  __ALIGN_END =
 139:Middlewares/ST/STM32_USB_Device_Library/Class/HID/Src/usbd_hid.c **** {
 140:Middlewares/ST/STM32_USB_Device_Library/Class/HID/Src/usbd_hid.c ****   0x09, /* bLength: Configuration Descriptor size */
 141:Middlewares/ST/STM32_USB_Device_Library/Class/HID/Src/usbd_hid.c ****   USB_DESC_TYPE_CONFIGURATION, /* bDescriptorType: Configuration */
 142:Middlewares/ST/STM32_USB_Device_Library/Class/HID/Src/usbd_hid.c ****   USB_HID_CONFIG_DESC_SIZ,
 143:Middlewares/ST/STM32_USB_Device_Library/Class/HID/Src/usbd_hid.c ****   /* wTotalLength: Bytes returned */
 144:Middlewares/ST/STM32_USB_Device_Library/Class/HID/Src/usbd_hid.c ****   0x00,
 145:Middlewares/ST/STM32_USB_Device_Library/Class/HID/Src/usbd_hid.c ****   0x01,         /*bNumInterfaces: 1 interface*/
ARM GAS  C:\Users\Eemeli\AppData\Local\Temp\ccp515TO.s 			page 4


 146:Middlewares/ST/STM32_USB_Device_Library/Class/HID/Src/usbd_hid.c ****   0x01,         /*bConfigurationValue: Configuration value*/
 147:Middlewares/ST/STM32_USB_Device_Library/Class/HID/Src/usbd_hid.c ****   0x00,         /*iConfiguration: Index of string descriptor describing
 148:Middlewares/ST/STM32_USB_Device_Library/Class/HID/Src/usbd_hid.c ****   the configuration*/
 149:Middlewares/ST/STM32_USB_Device_Library/Class/HID/Src/usbd_hid.c ****   0xE0,         /*bmAttributes: bus powered and Support Remote Wake-up */
 150:Middlewares/ST/STM32_USB_Device_Library/Class/HID/Src/usbd_hid.c ****   0x32,         /*MaxPower 100 mA: this current is used for detecting Vbus*/
 151:Middlewares/ST/STM32_USB_Device_Library/Class/HID/Src/usbd_hid.c ****   
 152:Middlewares/ST/STM32_USB_Device_Library/Class/HID/Src/usbd_hid.c ****   /************** Descriptor of Keyboard interface ****************/
 153:Middlewares/ST/STM32_USB_Device_Library/Class/HID/Src/usbd_hid.c ****   /* 09 */
 154:Middlewares/ST/STM32_USB_Device_Library/Class/HID/Src/usbd_hid.c ****   0x09,         /*bLength: Interface Descriptor size*/
 155:Middlewares/ST/STM32_USB_Device_Library/Class/HID/Src/usbd_hid.c ****   USB_DESC_TYPE_INTERFACE,/*bDescriptorType: Interface descriptor type*/
 156:Middlewares/ST/STM32_USB_Device_Library/Class/HID/Src/usbd_hid.c ****   0x00,         /*bInterfaceNumber: Number of Interface*/
 157:Middlewares/ST/STM32_USB_Device_Library/Class/HID/Src/usbd_hid.c ****   0x00,         /*bAlternateSetting: Alternate setting*/
 158:Middlewares/ST/STM32_USB_Device_Library/Class/HID/Src/usbd_hid.c ****   0x01,         /*bNumEndpoints*/
 159:Middlewares/ST/STM32_USB_Device_Library/Class/HID/Src/usbd_hid.c ****   0x03,         /*bInterfaceClass: HID*/
 160:Middlewares/ST/STM32_USB_Device_Library/Class/HID/Src/usbd_hid.c ****   0x01,         /*bInterfaceSubClass : 1=BOOT, 0=no boot*/
 161:Middlewares/ST/STM32_USB_Device_Library/Class/HID/Src/usbd_hid.c ****   0x01,         /*nInterfaceProtocol : 0=none, 1=keyboard, 2=mouse*/  // KEYBOARD
 162:Middlewares/ST/STM32_USB_Device_Library/Class/HID/Src/usbd_hid.c ****   0,            /*iInterface: Index of string descriptor*/
 163:Middlewares/ST/STM32_USB_Device_Library/Class/HID/Src/usbd_hid.c ****   /******************** Descriptor of Keyboard HID ********************/
 164:Middlewares/ST/STM32_USB_Device_Library/Class/HID/Src/usbd_hid.c ****   /* 18 */
 165:Middlewares/ST/STM32_USB_Device_Library/Class/HID/Src/usbd_hid.c ****   0x09,         /*bLength: HID Descriptor size*/
 166:Middlewares/ST/STM32_USB_Device_Library/Class/HID/Src/usbd_hid.c ****   HID_DESCRIPTOR_TYPE, /*bDescriptorType: HID*/
 167:Middlewares/ST/STM32_USB_Device_Library/Class/HID/Src/usbd_hid.c ****   0x11,         /*bcdHID: HID Class Spec release number*/
 168:Middlewares/ST/STM32_USB_Device_Library/Class/HID/Src/usbd_hid.c ****   0x01,
 169:Middlewares/ST/STM32_USB_Device_Library/Class/HID/Src/usbd_hid.c ****   0x00,         /*bCountryCode: Hardware target country*/
 170:Middlewares/ST/STM32_USB_Device_Library/Class/HID/Src/usbd_hid.c ****   0x01,         /*bNumDescriptors: Number of HID class descriptors to follow*/
 171:Middlewares/ST/STM32_USB_Device_Library/Class/HID/Src/usbd_hid.c ****   0x22,         /*bDescriptorType*/
 172:Middlewares/ST/STM32_USB_Device_Library/Class/HID/Src/usbd_hid.c ****   HID_MOUSE_REPORT_DESC_SIZE,/*wItemLength: Total length of Report descriptor*/
 173:Middlewares/ST/STM32_USB_Device_Library/Class/HID/Src/usbd_hid.c ****   0x00,
 174:Middlewares/ST/STM32_USB_Device_Library/Class/HID/Src/usbd_hid.c ****   /******************** Descriptor of endpoint ********************/
 175:Middlewares/ST/STM32_USB_Device_Library/Class/HID/Src/usbd_hid.c ****   /* 27 */
 176:Middlewares/ST/STM32_USB_Device_Library/Class/HID/Src/usbd_hid.c ****   0x07,          /*bLength: Endpoint Descriptor size*/
 177:Middlewares/ST/STM32_USB_Device_Library/Class/HID/Src/usbd_hid.c ****   USB_DESC_TYPE_ENDPOINT, /*bDescriptorType:*/
 178:Middlewares/ST/STM32_USB_Device_Library/Class/HID/Src/usbd_hid.c ****   
 179:Middlewares/ST/STM32_USB_Device_Library/Class/HID/Src/usbd_hid.c ****   HID_EPIN_ADDR,     /*bEndpointAddress: Endpoint Address (IN)*/
 180:Middlewares/ST/STM32_USB_Device_Library/Class/HID/Src/usbd_hid.c ****   0x03,          /*bmAttributes: Interrupt endpoint*/
 181:Middlewares/ST/STM32_USB_Device_Library/Class/HID/Src/usbd_hid.c ****   HID_EPIN_SIZE, /*wMaxPacketSize: 4 Byte max */
 182:Middlewares/ST/STM32_USB_Device_Library/Class/HID/Src/usbd_hid.c ****   0x00,
 183:Middlewares/ST/STM32_USB_Device_Library/Class/HID/Src/usbd_hid.c ****   HID_FS_BINTERVAL,          /*bInterval: Polling Interval (10 ms)*/
 184:Middlewares/ST/STM32_USB_Device_Library/Class/HID/Src/usbd_hid.c ****   /* 34 */
 185:Middlewares/ST/STM32_USB_Device_Library/Class/HID/Src/usbd_hid.c **** } ;
 186:Middlewares/ST/STM32_USB_Device_Library/Class/HID/Src/usbd_hid.c **** 
 187:Middlewares/ST/STM32_USB_Device_Library/Class/HID/Src/usbd_hid.c **** /* USB HID device Configuration Descriptor */
 188:Middlewares/ST/STM32_USB_Device_Library/Class/HID/Src/usbd_hid.c **** __ALIGN_BEGIN static uint8_t USBD_HID_Desc[USB_HID_DESC_SIZ]  __ALIGN_END  =
 189:Middlewares/ST/STM32_USB_Device_Library/Class/HID/Src/usbd_hid.c **** {
 190:Middlewares/ST/STM32_USB_Device_Library/Class/HID/Src/usbd_hid.c ****   /* 18 */
 191:Middlewares/ST/STM32_USB_Device_Library/Class/HID/Src/usbd_hid.c ****   0x09,         /*bLength: HID Descriptor size*/
 192:Middlewares/ST/STM32_USB_Device_Library/Class/HID/Src/usbd_hid.c ****   HID_DESCRIPTOR_TYPE, /*bDescriptorType: HID*/
 193:Middlewares/ST/STM32_USB_Device_Library/Class/HID/Src/usbd_hid.c ****   0x11,         /*bcdHID: HID Class Spec release number*/
 194:Middlewares/ST/STM32_USB_Device_Library/Class/HID/Src/usbd_hid.c ****   0x01,
 195:Middlewares/ST/STM32_USB_Device_Library/Class/HID/Src/usbd_hid.c ****   0x00,         /*bCountryCode: Hardware target country*/
 196:Middlewares/ST/STM32_USB_Device_Library/Class/HID/Src/usbd_hid.c ****   0x01,         /*bNumDescriptors: Number of HID class descriptors to follow*/
 197:Middlewares/ST/STM32_USB_Device_Library/Class/HID/Src/usbd_hid.c ****   0x22,         /*bDescriptorType*/
 198:Middlewares/ST/STM32_USB_Device_Library/Class/HID/Src/usbd_hid.c ****   HID_MOUSE_REPORT_DESC_SIZE,/*wItemLength: Total length of Report descriptor*/
 199:Middlewares/ST/STM32_USB_Device_Library/Class/HID/Src/usbd_hid.c ****   0x00,
 200:Middlewares/ST/STM32_USB_Device_Library/Class/HID/Src/usbd_hid.c **** };
 201:Middlewares/ST/STM32_USB_Device_Library/Class/HID/Src/usbd_hid.c **** 
 202:Middlewares/ST/STM32_USB_Device_Library/Class/HID/Src/usbd_hid.c **** /* USB Standard Device Descriptor */
ARM GAS  C:\Users\Eemeli\AppData\Local\Temp\ccp515TO.s 			page 5


 203:Middlewares/ST/STM32_USB_Device_Library/Class/HID/Src/usbd_hid.c **** __ALIGN_BEGIN static uint8_t USBD_HID_DeviceQualifierDesc[USB_LEN_DEV_QUALIFIER_DESC]  __ALIGN_END 
 204:Middlewares/ST/STM32_USB_Device_Library/Class/HID/Src/usbd_hid.c **** {
 205:Middlewares/ST/STM32_USB_Device_Library/Class/HID/Src/usbd_hid.c ****   USB_LEN_DEV_QUALIFIER_DESC,
 206:Middlewares/ST/STM32_USB_Device_Library/Class/HID/Src/usbd_hid.c ****   USB_DESC_TYPE_DEVICE_QUALIFIER,
 207:Middlewares/ST/STM32_USB_Device_Library/Class/HID/Src/usbd_hid.c ****   0x00,
 208:Middlewares/ST/STM32_USB_Device_Library/Class/HID/Src/usbd_hid.c ****   0x02,
 209:Middlewares/ST/STM32_USB_Device_Library/Class/HID/Src/usbd_hid.c ****   0x00,
 210:Middlewares/ST/STM32_USB_Device_Library/Class/HID/Src/usbd_hid.c ****   0x00,
 211:Middlewares/ST/STM32_USB_Device_Library/Class/HID/Src/usbd_hid.c ****   0x00,
 212:Middlewares/ST/STM32_USB_Device_Library/Class/HID/Src/usbd_hid.c ****   0x40,
 213:Middlewares/ST/STM32_USB_Device_Library/Class/HID/Src/usbd_hid.c ****   0x01,
 214:Middlewares/ST/STM32_USB_Device_Library/Class/HID/Src/usbd_hid.c ****   0x00,
 215:Middlewares/ST/STM32_USB_Device_Library/Class/HID/Src/usbd_hid.c **** };
 216:Middlewares/ST/STM32_USB_Device_Library/Class/HID/Src/usbd_hid.c **** 
 217:Middlewares/ST/STM32_USB_Device_Library/Class/HID/Src/usbd_hid.c **** __ALIGN_BEGIN static uint8_t HID_KEYBOARD_ReportDesc[HID_MOUSE_REPORT_DESC_SIZE]  __ALIGN_END =
 218:Middlewares/ST/STM32_USB_Device_Library/Class/HID/Src/usbd_hid.c **** {
 219:Middlewares/ST/STM32_USB_Device_Library/Class/HID/Src/usbd_hid.c ****   0x05, 0x01,                    // USAGE_PAGE (Generic Desktop)
 220:Middlewares/ST/STM32_USB_Device_Library/Class/HID/Src/usbd_hid.c ****         0x09, 0x06,                    // USAGE (Keyboard)
 221:Middlewares/ST/STM32_USB_Device_Library/Class/HID/Src/usbd_hid.c ****         0xa1, 0x01,                    // COLLECTION (Application)
 222:Middlewares/ST/STM32_USB_Device_Library/Class/HID/Src/usbd_hid.c ****         0x05, 0x07,                    //   USAGE_PAGE (Keyboard)
 223:Middlewares/ST/STM32_USB_Device_Library/Class/HID/Src/usbd_hid.c ****             0x19, 0xe0,                    //   USAGE_MINIMUM (Keyboard LeftControl)
 224:Middlewares/ST/STM32_USB_Device_Library/Class/HID/Src/usbd_hid.c ****             0x29, 0xe7,                    //   USAGE_MAXIMUM (Keyboard Right GUI)
 225:Middlewares/ST/STM32_USB_Device_Library/Class/HID/Src/usbd_hid.c ****             0x15, 0x00,                    //   LOGICAL_MINIMUM (0)
 226:Middlewares/ST/STM32_USB_Device_Library/Class/HID/Src/usbd_hid.c ****             0x25, 0x01,                    //   LOGICAL_MAXIMUM (1)
 227:Middlewares/ST/STM32_USB_Device_Library/Class/HID/Src/usbd_hid.c ****             0x75, 0x01,                    //   REPORT_SIZE (1)
 228:Middlewares/ST/STM32_USB_Device_Library/Class/HID/Src/usbd_hid.c ****             0x95, 0x08,                    //   REPORT_COUNT (8)
 229:Middlewares/ST/STM32_USB_Device_Library/Class/HID/Src/usbd_hid.c ****             0x81, 0x02,                    //   INPUT (Data,Var,Abs)    //1 byte
 230:Middlewares/ST/STM32_USB_Device_Library/Class/HID/Src/usbd_hid.c **** 
 231:Middlewares/ST/STM32_USB_Device_Library/Class/HID/Src/usbd_hid.c ****             0x95, 0x01,                    //   REPORT_COUNT (1)
 232:Middlewares/ST/STM32_USB_Device_Library/Class/HID/Src/usbd_hid.c ****             0x75, 0x08,                    //   REPORT_SIZE (8)
 233:Middlewares/ST/STM32_USB_Device_Library/Class/HID/Src/usbd_hid.c ****             0x81, 0x03,                    //   INPUT (Cnst,Var,Abs)    //1 byte
 234:Middlewares/ST/STM32_USB_Device_Library/Class/HID/Src/usbd_hid.c **** 
 235:Middlewares/ST/STM32_USB_Device_Library/Class/HID/Src/usbd_hid.c ****             0x95, 0x06,                    //   REPORT_COUNT (6)
 236:Middlewares/ST/STM32_USB_Device_Library/Class/HID/Src/usbd_hid.c ****             0x75, 0x08,                    //   REPORT_SIZE (8)
 237:Middlewares/ST/STM32_USB_Device_Library/Class/HID/Src/usbd_hid.c ****             0x15, 0x00,                    //   LOGICAL_MINIMUM (0)
 238:Middlewares/ST/STM32_USB_Device_Library/Class/HID/Src/usbd_hid.c ****             0x25, 0x65,                    //   LOGICAL_MAXIMUM (101)
 239:Middlewares/ST/STM32_USB_Device_Library/Class/HID/Src/usbd_hid.c ****             0x05, 0x07,                    //   USAGE_PAGE (Keyboard)
 240:Middlewares/ST/STM32_USB_Device_Library/Class/HID/Src/usbd_hid.c ****             0x19, 0x00,                    //   USAGE_MINIMUM (Reserved (no event indicated))
 241:Middlewares/ST/STM32_USB_Device_Library/Class/HID/Src/usbd_hid.c ****             0x29, 0x65,                    //   USAGE_MAXIMUM (Keyboard Application)
 242:Middlewares/ST/STM32_USB_Device_Library/Class/HID/Src/usbd_hid.c ****             0x81, 0x00,                    //   INPUT (Data,Ary,Abs)    //6 bytes
 243:Middlewares/ST/STM32_USB_Device_Library/Class/HID/Src/usbd_hid.c **** 
 244:Middlewares/ST/STM32_USB_Device_Library/Class/HID/Src/usbd_hid.c ****     0xc0                           // END_COLLECTION
 245:Middlewares/ST/STM32_USB_Device_Library/Class/HID/Src/usbd_hid.c **** }; 
 246:Middlewares/ST/STM32_USB_Device_Library/Class/HID/Src/usbd_hid.c **** 
 247:Middlewares/ST/STM32_USB_Device_Library/Class/HID/Src/usbd_hid.c **** /**
 248:Middlewares/ST/STM32_USB_Device_Library/Class/HID/Src/usbd_hid.c ****   * @}
 249:Middlewares/ST/STM32_USB_Device_Library/Class/HID/Src/usbd_hid.c ****   */ 
 250:Middlewares/ST/STM32_USB_Device_Library/Class/HID/Src/usbd_hid.c **** 
 251:Middlewares/ST/STM32_USB_Device_Library/Class/HID/Src/usbd_hid.c **** /** @defgroup USBD_HID_Private_Functions
 252:Middlewares/ST/STM32_USB_Device_Library/Class/HID/Src/usbd_hid.c ****   * @{
 253:Middlewares/ST/STM32_USB_Device_Library/Class/HID/Src/usbd_hid.c ****   */ 
 254:Middlewares/ST/STM32_USB_Device_Library/Class/HID/Src/usbd_hid.c **** 
 255:Middlewares/ST/STM32_USB_Device_Library/Class/HID/Src/usbd_hid.c **** /**
 256:Middlewares/ST/STM32_USB_Device_Library/Class/HID/Src/usbd_hid.c ****   * @brief  USBD_HID_Init
 257:Middlewares/ST/STM32_USB_Device_Library/Class/HID/Src/usbd_hid.c ****   *         Initialize the HID interface
 258:Middlewares/ST/STM32_USB_Device_Library/Class/HID/Src/usbd_hid.c ****   * @param  pdev: device instance
 259:Middlewares/ST/STM32_USB_Device_Library/Class/HID/Src/usbd_hid.c ****   * @param  cfgidx: Configuration index
ARM GAS  C:\Users\Eemeli\AppData\Local\Temp\ccp515TO.s 			page 6


 260:Middlewares/ST/STM32_USB_Device_Library/Class/HID/Src/usbd_hid.c ****   * @retval status
 261:Middlewares/ST/STM32_USB_Device_Library/Class/HID/Src/usbd_hid.c ****   */
 262:Middlewares/ST/STM32_USB_Device_Library/Class/HID/Src/usbd_hid.c **** static uint8_t  USBD_HID_Init (USBD_HandleTypeDef *pdev, 
 263:Middlewares/ST/STM32_USB_Device_Library/Class/HID/Src/usbd_hid.c ****                                uint8_t cfgidx)
 264:Middlewares/ST/STM32_USB_Device_Library/Class/HID/Src/usbd_hid.c **** {
 265:Middlewares/ST/STM32_USB_Device_Library/Class/HID/Src/usbd_hid.c ****   uint8_t ret = 0;
 266:Middlewares/ST/STM32_USB_Device_Library/Class/HID/Src/usbd_hid.c ****   
 267:Middlewares/ST/STM32_USB_Device_Library/Class/HID/Src/usbd_hid.c ****   /* Open EP IN */
 268:Middlewares/ST/STM32_USB_Device_Library/Class/HID/Src/usbd_hid.c ****   USBD_LL_OpenEP(pdev,
 269:Middlewares/ST/STM32_USB_Device_Library/Class/HID/Src/usbd_hid.c ****                  HID_EPIN_ADDR,
 270:Middlewares/ST/STM32_USB_Device_Library/Class/HID/Src/usbd_hid.c ****                  USBD_EP_TYPE_INTR,
 271:Middlewares/ST/STM32_USB_Device_Library/Class/HID/Src/usbd_hid.c ****                  HID_EPIN_SIZE);  
 272:Middlewares/ST/STM32_USB_Device_Library/Class/HID/Src/usbd_hid.c ****   
 273:Middlewares/ST/STM32_USB_Device_Library/Class/HID/Src/usbd_hid.c ****   pdev->pClassData = USBD_malloc(sizeof (USBD_HID_HandleTypeDef));
 274:Middlewares/ST/STM32_USB_Device_Library/Class/HID/Src/usbd_hid.c ****   
 275:Middlewares/ST/STM32_USB_Device_Library/Class/HID/Src/usbd_hid.c ****   if(pdev->pClassData == NULL)
 276:Middlewares/ST/STM32_USB_Device_Library/Class/HID/Src/usbd_hid.c ****   {
 277:Middlewares/ST/STM32_USB_Device_Library/Class/HID/Src/usbd_hid.c ****     ret = 1; 
 278:Middlewares/ST/STM32_USB_Device_Library/Class/HID/Src/usbd_hid.c ****   }
 279:Middlewares/ST/STM32_USB_Device_Library/Class/HID/Src/usbd_hid.c ****   else
 280:Middlewares/ST/STM32_USB_Device_Library/Class/HID/Src/usbd_hid.c ****   {
 281:Middlewares/ST/STM32_USB_Device_Library/Class/HID/Src/usbd_hid.c ****     ((USBD_HID_HandleTypeDef *)pdev->pClassData)->state = HID_IDLE;
 282:Middlewares/ST/STM32_USB_Device_Library/Class/HID/Src/usbd_hid.c ****   }
 283:Middlewares/ST/STM32_USB_Device_Library/Class/HID/Src/usbd_hid.c ****   return ret;
 284:Middlewares/ST/STM32_USB_Device_Library/Class/HID/Src/usbd_hid.c **** }
 285:Middlewares/ST/STM32_USB_Device_Library/Class/HID/Src/usbd_hid.c **** 
 286:Middlewares/ST/STM32_USB_Device_Library/Class/HID/Src/usbd_hid.c **** /**
 287:Middlewares/ST/STM32_USB_Device_Library/Class/HID/Src/usbd_hid.c ****   * @brief  USBD_HID_Init
 288:Middlewares/ST/STM32_USB_Device_Library/Class/HID/Src/usbd_hid.c ****   *         DeInitialize the HID layer
 289:Middlewares/ST/STM32_USB_Device_Library/Class/HID/Src/usbd_hid.c ****   * @param  pdev: device instance
 290:Middlewares/ST/STM32_USB_Device_Library/Class/HID/Src/usbd_hid.c ****   * @param  cfgidx: Configuration index
 291:Middlewares/ST/STM32_USB_Device_Library/Class/HID/Src/usbd_hid.c ****   * @retval status
 292:Middlewares/ST/STM32_USB_Device_Library/Class/HID/Src/usbd_hid.c ****   */
 293:Middlewares/ST/STM32_USB_Device_Library/Class/HID/Src/usbd_hid.c **** static uint8_t  USBD_HID_DeInit (USBD_HandleTypeDef *pdev, 
 294:Middlewares/ST/STM32_USB_Device_Library/Class/HID/Src/usbd_hid.c ****                                  uint8_t cfgidx)
 295:Middlewares/ST/STM32_USB_Device_Library/Class/HID/Src/usbd_hid.c **** {
 296:Middlewares/ST/STM32_USB_Device_Library/Class/HID/Src/usbd_hid.c ****   /* Close HID EPs */
 297:Middlewares/ST/STM32_USB_Device_Library/Class/HID/Src/usbd_hid.c ****   USBD_LL_CloseEP(pdev,
 298:Middlewares/ST/STM32_USB_Device_Library/Class/HID/Src/usbd_hid.c ****                   HID_EPIN_ADDR);
 299:Middlewares/ST/STM32_USB_Device_Library/Class/HID/Src/usbd_hid.c ****   
 300:Middlewares/ST/STM32_USB_Device_Library/Class/HID/Src/usbd_hid.c ****   /* FRee allocated memory */
 301:Middlewares/ST/STM32_USB_Device_Library/Class/HID/Src/usbd_hid.c ****   if(pdev->pClassData != NULL)
 302:Middlewares/ST/STM32_USB_Device_Library/Class/HID/Src/usbd_hid.c ****   {
 303:Middlewares/ST/STM32_USB_Device_Library/Class/HID/Src/usbd_hid.c ****     USBD_free(pdev->pClassData);
 304:Middlewares/ST/STM32_USB_Device_Library/Class/HID/Src/usbd_hid.c ****     pdev->pClassData = NULL;
 305:Middlewares/ST/STM32_USB_Device_Library/Class/HID/Src/usbd_hid.c ****   } 
 306:Middlewares/ST/STM32_USB_Device_Library/Class/HID/Src/usbd_hid.c ****   
 307:Middlewares/ST/STM32_USB_Device_Library/Class/HID/Src/usbd_hid.c ****   return USBD_OK;
 308:Middlewares/ST/STM32_USB_Device_Library/Class/HID/Src/usbd_hid.c **** }
 309:Middlewares/ST/STM32_USB_Device_Library/Class/HID/Src/usbd_hid.c **** 
 310:Middlewares/ST/STM32_USB_Device_Library/Class/HID/Src/usbd_hid.c **** /**
 311:Middlewares/ST/STM32_USB_Device_Library/Class/HID/Src/usbd_hid.c ****   * @brief  USBD_HID_Setup
 312:Middlewares/ST/STM32_USB_Device_Library/Class/HID/Src/usbd_hid.c ****   *         Handle the HID specific requests
 313:Middlewares/ST/STM32_USB_Device_Library/Class/HID/Src/usbd_hid.c ****   * @param  pdev: instance
 314:Middlewares/ST/STM32_USB_Device_Library/Class/HID/Src/usbd_hid.c ****   * @param  req: usb requests
 315:Middlewares/ST/STM32_USB_Device_Library/Class/HID/Src/usbd_hid.c ****   * @retval status
 316:Middlewares/ST/STM32_USB_Device_Library/Class/HID/Src/usbd_hid.c ****   */
ARM GAS  C:\Users\Eemeli\AppData\Local\Temp\ccp515TO.s 			page 7


 317:Middlewares/ST/STM32_USB_Device_Library/Class/HID/Src/usbd_hid.c **** static uint8_t  USBD_HID_Setup (USBD_HandleTypeDef *pdev, 
 318:Middlewares/ST/STM32_USB_Device_Library/Class/HID/Src/usbd_hid.c ****                                 USBD_SetupReqTypedef *req)
 319:Middlewares/ST/STM32_USB_Device_Library/Class/HID/Src/usbd_hid.c **** {
 320:Middlewares/ST/STM32_USB_Device_Library/Class/HID/Src/usbd_hid.c ****   uint16_t len = 0;
 321:Middlewares/ST/STM32_USB_Device_Library/Class/HID/Src/usbd_hid.c ****   uint8_t  *pbuf = NULL;
 322:Middlewares/ST/STM32_USB_Device_Library/Class/HID/Src/usbd_hid.c ****   USBD_HID_HandleTypeDef     *hhid = (USBD_HID_HandleTypeDef*) pdev->pClassData;
 323:Middlewares/ST/STM32_USB_Device_Library/Class/HID/Src/usbd_hid.c ****   
 324:Middlewares/ST/STM32_USB_Device_Library/Class/HID/Src/usbd_hid.c ****   switch (req->bmRequest & USB_REQ_TYPE_MASK)
 325:Middlewares/ST/STM32_USB_Device_Library/Class/HID/Src/usbd_hid.c ****   {
 326:Middlewares/ST/STM32_USB_Device_Library/Class/HID/Src/usbd_hid.c ****   case USB_REQ_TYPE_CLASS :  
 327:Middlewares/ST/STM32_USB_Device_Library/Class/HID/Src/usbd_hid.c ****     switch (req->bRequest)
 328:Middlewares/ST/STM32_USB_Device_Library/Class/HID/Src/usbd_hid.c ****     {
 329:Middlewares/ST/STM32_USB_Device_Library/Class/HID/Src/usbd_hid.c ****       
 330:Middlewares/ST/STM32_USB_Device_Library/Class/HID/Src/usbd_hid.c ****       
 331:Middlewares/ST/STM32_USB_Device_Library/Class/HID/Src/usbd_hid.c ****     case HID_REQ_SET_PROTOCOL:
 332:Middlewares/ST/STM32_USB_Device_Library/Class/HID/Src/usbd_hid.c ****       hhid->Protocol = (uint8_t)(req->wValue);
 333:Middlewares/ST/STM32_USB_Device_Library/Class/HID/Src/usbd_hid.c ****       break;
 334:Middlewares/ST/STM32_USB_Device_Library/Class/HID/Src/usbd_hid.c ****       
 335:Middlewares/ST/STM32_USB_Device_Library/Class/HID/Src/usbd_hid.c ****     case HID_REQ_GET_PROTOCOL:
 336:Middlewares/ST/STM32_USB_Device_Library/Class/HID/Src/usbd_hid.c ****       USBD_CtlSendData (pdev, 
 337:Middlewares/ST/STM32_USB_Device_Library/Class/HID/Src/usbd_hid.c ****                         (uint8_t *)&hhid->Protocol,
 338:Middlewares/ST/STM32_USB_Device_Library/Class/HID/Src/usbd_hid.c ****                         1);    
 339:Middlewares/ST/STM32_USB_Device_Library/Class/HID/Src/usbd_hid.c ****       break;
 340:Middlewares/ST/STM32_USB_Device_Library/Class/HID/Src/usbd_hid.c ****       
 341:Middlewares/ST/STM32_USB_Device_Library/Class/HID/Src/usbd_hid.c ****     case HID_REQ_SET_IDLE:
 342:Middlewares/ST/STM32_USB_Device_Library/Class/HID/Src/usbd_hid.c ****       hhid->IdleState = (uint8_t)(req->wValue >> 8);
 343:Middlewares/ST/STM32_USB_Device_Library/Class/HID/Src/usbd_hid.c ****       break;
 344:Middlewares/ST/STM32_USB_Device_Library/Class/HID/Src/usbd_hid.c ****       
 345:Middlewares/ST/STM32_USB_Device_Library/Class/HID/Src/usbd_hid.c ****     case HID_REQ_GET_IDLE:
 346:Middlewares/ST/STM32_USB_Device_Library/Class/HID/Src/usbd_hid.c ****       USBD_CtlSendData (pdev, 
 347:Middlewares/ST/STM32_USB_Device_Library/Class/HID/Src/usbd_hid.c ****                         (uint8_t *)&hhid->IdleState,
 348:Middlewares/ST/STM32_USB_Device_Library/Class/HID/Src/usbd_hid.c ****                         1);        
 349:Middlewares/ST/STM32_USB_Device_Library/Class/HID/Src/usbd_hid.c ****       break;      
 350:Middlewares/ST/STM32_USB_Device_Library/Class/HID/Src/usbd_hid.c ****       
 351:Middlewares/ST/STM32_USB_Device_Library/Class/HID/Src/usbd_hid.c ****     default:
 352:Middlewares/ST/STM32_USB_Device_Library/Class/HID/Src/usbd_hid.c ****       USBD_CtlError (pdev, req);
 353:Middlewares/ST/STM32_USB_Device_Library/Class/HID/Src/usbd_hid.c ****       return USBD_FAIL; 
 354:Middlewares/ST/STM32_USB_Device_Library/Class/HID/Src/usbd_hid.c ****     }
 355:Middlewares/ST/STM32_USB_Device_Library/Class/HID/Src/usbd_hid.c ****     break;
 356:Middlewares/ST/STM32_USB_Device_Library/Class/HID/Src/usbd_hid.c ****     
 357:Middlewares/ST/STM32_USB_Device_Library/Class/HID/Src/usbd_hid.c ****   case USB_REQ_TYPE_STANDARD:
 358:Middlewares/ST/STM32_USB_Device_Library/Class/HID/Src/usbd_hid.c ****     switch (req->bRequest)
 359:Middlewares/ST/STM32_USB_Device_Library/Class/HID/Src/usbd_hid.c ****     {
 360:Middlewares/ST/STM32_USB_Device_Library/Class/HID/Src/usbd_hid.c ****     case USB_REQ_GET_DESCRIPTOR: 
 361:Middlewares/ST/STM32_USB_Device_Library/Class/HID/Src/usbd_hid.c ****       if( req->wValue >> 8 == HID_REPORT_DESC)
 362:Middlewares/ST/STM32_USB_Device_Library/Class/HID/Src/usbd_hid.c ****       {
 363:Middlewares/ST/STM32_USB_Device_Library/Class/HID/Src/usbd_hid.c ****         len = MIN(HID_MOUSE_REPORT_DESC_SIZE , req->wLength);
 364:Middlewares/ST/STM32_USB_Device_Library/Class/HID/Src/usbd_hid.c ****         pbuf = HID_KEYBOARD_ReportDesc;
 365:Middlewares/ST/STM32_USB_Device_Library/Class/HID/Src/usbd_hid.c ****       }
 366:Middlewares/ST/STM32_USB_Device_Library/Class/HID/Src/usbd_hid.c ****       else if( req->wValue >> 8 == HID_DESCRIPTOR_TYPE)
 367:Middlewares/ST/STM32_USB_Device_Library/Class/HID/Src/usbd_hid.c ****       {
 368:Middlewares/ST/STM32_USB_Device_Library/Class/HID/Src/usbd_hid.c ****         pbuf = USBD_HID_Desc;   
 369:Middlewares/ST/STM32_USB_Device_Library/Class/HID/Src/usbd_hid.c ****         len = MIN(USB_HID_DESC_SIZ , req->wLength);
 370:Middlewares/ST/STM32_USB_Device_Library/Class/HID/Src/usbd_hid.c ****       }
 371:Middlewares/ST/STM32_USB_Device_Library/Class/HID/Src/usbd_hid.c ****       
 372:Middlewares/ST/STM32_USB_Device_Library/Class/HID/Src/usbd_hid.c ****       USBD_CtlSendData (pdev, 
 373:Middlewares/ST/STM32_USB_Device_Library/Class/HID/Src/usbd_hid.c ****                         pbuf,
ARM GAS  C:\Users\Eemeli\AppData\Local\Temp\ccp515TO.s 			page 8


 374:Middlewares/ST/STM32_USB_Device_Library/Class/HID/Src/usbd_hid.c ****                         len);
 375:Middlewares/ST/STM32_USB_Device_Library/Class/HID/Src/usbd_hid.c ****       
 376:Middlewares/ST/STM32_USB_Device_Library/Class/HID/Src/usbd_hid.c ****       break;
 377:Middlewares/ST/STM32_USB_Device_Library/Class/HID/Src/usbd_hid.c ****       
 378:Middlewares/ST/STM32_USB_Device_Library/Class/HID/Src/usbd_hid.c ****     case USB_REQ_GET_INTERFACE :
 379:Middlewares/ST/STM32_USB_Device_Library/Class/HID/Src/usbd_hid.c ****       USBD_CtlSendData (pdev,
 380:Middlewares/ST/STM32_USB_Device_Library/Class/HID/Src/usbd_hid.c ****                         (uint8_t *)&hhid->AltSetting,
 381:Middlewares/ST/STM32_USB_Device_Library/Class/HID/Src/usbd_hid.c ****                         1);
 382:Middlewares/ST/STM32_USB_Device_Library/Class/HID/Src/usbd_hid.c ****       break;
 383:Middlewares/ST/STM32_USB_Device_Library/Class/HID/Src/usbd_hid.c ****       
 384:Middlewares/ST/STM32_USB_Device_Library/Class/HID/Src/usbd_hid.c ****     case USB_REQ_SET_INTERFACE :
 385:Middlewares/ST/STM32_USB_Device_Library/Class/HID/Src/usbd_hid.c ****       hhid->AltSetting = (uint8_t)(req->wValue);
 386:Middlewares/ST/STM32_USB_Device_Library/Class/HID/Src/usbd_hid.c ****       break;
 387:Middlewares/ST/STM32_USB_Device_Library/Class/HID/Src/usbd_hid.c ****     }
 388:Middlewares/ST/STM32_USB_Device_Library/Class/HID/Src/usbd_hid.c ****   }
 389:Middlewares/ST/STM32_USB_Device_Library/Class/HID/Src/usbd_hid.c ****   return USBD_OK;
 390:Middlewares/ST/STM32_USB_Device_Library/Class/HID/Src/usbd_hid.c **** }
 391:Middlewares/ST/STM32_USB_Device_Library/Class/HID/Src/usbd_hid.c **** 
 392:Middlewares/ST/STM32_USB_Device_Library/Class/HID/Src/usbd_hid.c **** /**
 393:Middlewares/ST/STM32_USB_Device_Library/Class/HID/Src/usbd_hid.c ****   * @brief  USBD_HID_SendReport 
 394:Middlewares/ST/STM32_USB_Device_Library/Class/HID/Src/usbd_hid.c ****   *         Send HID Report
 395:Middlewares/ST/STM32_USB_Device_Library/Class/HID/Src/usbd_hid.c ****   * @param  pdev: device instance
 396:Middlewares/ST/STM32_USB_Device_Library/Class/HID/Src/usbd_hid.c ****   * @param  buff: pointer to report
 397:Middlewares/ST/STM32_USB_Device_Library/Class/HID/Src/usbd_hid.c ****   * @retval status
 398:Middlewares/ST/STM32_USB_Device_Library/Class/HID/Src/usbd_hid.c ****   */
 399:Middlewares/ST/STM32_USB_Device_Library/Class/HID/Src/usbd_hid.c **** uint8_t USBD_HID_SendReport     (USBD_HandleTypeDef  *pdev, 
 400:Middlewares/ST/STM32_USB_Device_Library/Class/HID/Src/usbd_hid.c ****                                  uint8_t *report,
 401:Middlewares/ST/STM32_USB_Device_Library/Class/HID/Src/usbd_hid.c ****                                  uint16_t len)
 402:Middlewares/ST/STM32_USB_Device_Library/Class/HID/Src/usbd_hid.c **** {
 403:Middlewares/ST/STM32_USB_Device_Library/Class/HID/Src/usbd_hid.c ****   USBD_HID_HandleTypeDef     *hhid = (USBD_HID_HandleTypeDef*)pdev->pClassData;
 404:Middlewares/ST/STM32_USB_Device_Library/Class/HID/Src/usbd_hid.c ****   
 405:Middlewares/ST/STM32_USB_Device_Library/Class/HID/Src/usbd_hid.c ****   if (pdev->dev_state == USBD_STATE_CONFIGURED )
 406:Middlewares/ST/STM32_USB_Device_Library/Class/HID/Src/usbd_hid.c ****   {
 407:Middlewares/ST/STM32_USB_Device_Library/Class/HID/Src/usbd_hid.c ****     if(hhid->state == HID_IDLE)
 408:Middlewares/ST/STM32_USB_Device_Library/Class/HID/Src/usbd_hid.c ****     {
 409:Middlewares/ST/STM32_USB_Device_Library/Class/HID/Src/usbd_hid.c ****       hhid->state = HID_BUSY;
 410:Middlewares/ST/STM32_USB_Device_Library/Class/HID/Src/usbd_hid.c ****       USBD_LL_Transmit (pdev, 
 411:Middlewares/ST/STM32_USB_Device_Library/Class/HID/Src/usbd_hid.c ****                         HID_EPIN_ADDR,                                      
 412:Middlewares/ST/STM32_USB_Device_Library/Class/HID/Src/usbd_hid.c ****                         report,
 413:Middlewares/ST/STM32_USB_Device_Library/Class/HID/Src/usbd_hid.c ****                         len);
 414:Middlewares/ST/STM32_USB_Device_Library/Class/HID/Src/usbd_hid.c ****     }
 415:Middlewares/ST/STM32_USB_Device_Library/Class/HID/Src/usbd_hid.c ****   }
 416:Middlewares/ST/STM32_USB_Device_Library/Class/HID/Src/usbd_hid.c ****   return USBD_OK;
 417:Middlewares/ST/STM32_USB_Device_Library/Class/HID/Src/usbd_hid.c **** }
 418:Middlewares/ST/STM32_USB_Device_Library/Class/HID/Src/usbd_hid.c **** 
 419:Middlewares/ST/STM32_USB_Device_Library/Class/HID/Src/usbd_hid.c **** /**
 420:Middlewares/ST/STM32_USB_Device_Library/Class/HID/Src/usbd_hid.c ****   * @brief  USBD_HID_GetPollingInterval 
 421:Middlewares/ST/STM32_USB_Device_Library/Class/HID/Src/usbd_hid.c ****   *         return polling interval from endpoint descriptor
 422:Middlewares/ST/STM32_USB_Device_Library/Class/HID/Src/usbd_hid.c ****   * @param  pdev: device instance
 423:Middlewares/ST/STM32_USB_Device_Library/Class/HID/Src/usbd_hid.c ****   * @retval polling interval
 424:Middlewares/ST/STM32_USB_Device_Library/Class/HID/Src/usbd_hid.c ****   */
 425:Middlewares/ST/STM32_USB_Device_Library/Class/HID/Src/usbd_hid.c **** uint32_t USBD_HID_GetPollingInterval (USBD_HandleTypeDef *pdev)
 426:Middlewares/ST/STM32_USB_Device_Library/Class/HID/Src/usbd_hid.c **** {
 427:Middlewares/ST/STM32_USB_Device_Library/Class/HID/Src/usbd_hid.c ****   uint32_t polling_interval = 0;
 428:Middlewares/ST/STM32_USB_Device_Library/Class/HID/Src/usbd_hid.c **** 
 429:Middlewares/ST/STM32_USB_Device_Library/Class/HID/Src/usbd_hid.c ****   /* HIGH-speed endpoints */
 430:Middlewares/ST/STM32_USB_Device_Library/Class/HID/Src/usbd_hid.c ****   if(pdev->dev_speed == USBD_SPEED_HIGH)
ARM GAS  C:\Users\Eemeli\AppData\Local\Temp\ccp515TO.s 			page 9


 431:Middlewares/ST/STM32_USB_Device_Library/Class/HID/Src/usbd_hid.c ****   {
 432:Middlewares/ST/STM32_USB_Device_Library/Class/HID/Src/usbd_hid.c ****    /* Sets the data transfer polling interval for high speed transfers. 
 433:Middlewares/ST/STM32_USB_Device_Library/Class/HID/Src/usbd_hid.c ****     Values between 1..16 are allowed. Values correspond to interval 
 434:Middlewares/ST/STM32_USB_Device_Library/Class/HID/Src/usbd_hid.c ****     of 2 ^ (bInterval-1). This option (8 ms, corresponds to HID_HS_BINTERVAL */
 435:Middlewares/ST/STM32_USB_Device_Library/Class/HID/Src/usbd_hid.c ****     polling_interval = (((1 <<(HID_HS_BINTERVAL - 1)))/8);
 436:Middlewares/ST/STM32_USB_Device_Library/Class/HID/Src/usbd_hid.c ****   }
 437:Middlewares/ST/STM32_USB_Device_Library/Class/HID/Src/usbd_hid.c ****   else   /* LOW and FULL-speed endpoints */
 438:Middlewares/ST/STM32_USB_Device_Library/Class/HID/Src/usbd_hid.c ****   {
 439:Middlewares/ST/STM32_USB_Device_Library/Class/HID/Src/usbd_hid.c ****     /* Sets the data transfer polling interval for low and full 
 440:Middlewares/ST/STM32_USB_Device_Library/Class/HID/Src/usbd_hid.c ****     speed transfers */
 441:Middlewares/ST/STM32_USB_Device_Library/Class/HID/Src/usbd_hid.c ****     polling_interval =  HID_FS_BINTERVAL;
 442:Middlewares/ST/STM32_USB_Device_Library/Class/HID/Src/usbd_hid.c ****   }
 443:Middlewares/ST/STM32_USB_Device_Library/Class/HID/Src/usbd_hid.c ****   
 444:Middlewares/ST/STM32_USB_Device_Library/Class/HID/Src/usbd_hid.c ****   return ((uint32_t)(polling_interval));
 445:Middlewares/ST/STM32_USB_Device_Library/Class/HID/Src/usbd_hid.c **** }
 446:Middlewares/ST/STM32_USB_Device_Library/Class/HID/Src/usbd_hid.c **** 
 447:Middlewares/ST/STM32_USB_Device_Library/Class/HID/Src/usbd_hid.c **** /**
 448:Middlewares/ST/STM32_USB_Device_Library/Class/HID/Src/usbd_hid.c ****   * @brief  USBD_HID_GetCfgDesc 
 449:Middlewares/ST/STM32_USB_Device_Library/Class/HID/Src/usbd_hid.c ****   *         return configuration descriptor
 450:Middlewares/ST/STM32_USB_Device_Library/Class/HID/Src/usbd_hid.c ****   * @param  speed : current device speed
 451:Middlewares/ST/STM32_USB_Device_Library/Class/HID/Src/usbd_hid.c ****   * @param  length : pointer data length
 452:Middlewares/ST/STM32_USB_Device_Library/Class/HID/Src/usbd_hid.c ****   * @retval pointer to descriptor buffer
 453:Middlewares/ST/STM32_USB_Device_Library/Class/HID/Src/usbd_hid.c ****   */
 454:Middlewares/ST/STM32_USB_Device_Library/Class/HID/Src/usbd_hid.c **** static uint8_t  *USBD_HID_GetCfgDesc (uint16_t *length)
 455:Middlewares/ST/STM32_USB_Device_Library/Class/HID/Src/usbd_hid.c **** {
  28              		.loc 1 455 1 view -0
  29              		.cfi_startproc
  30              		@ args = 0, pretend = 0, frame = 0
  31              		@ frame_needed = 0, uses_anonymous_args = 0
  32              		@ link register save eliminated.
 456:Middlewares/ST/STM32_USB_Device_Library/Class/HID/Src/usbd_hid.c ****   *length = sizeof (USBD_HID_CfgDesc);
  33              		.loc 1 456 3 view .LVU1
  34              		.loc 1 456 11 is_stmt 0 view .LVU2
  35 0000 2223     		movs	r3, #34
  36 0002 0380     		strh	r3, [r0]	@ movhi
 457:Middlewares/ST/STM32_USB_Device_Library/Class/HID/Src/usbd_hid.c ****   return USBD_HID_CfgDesc;
  37              		.loc 1 457 3 is_stmt 1 view .LVU3
 458:Middlewares/ST/STM32_USB_Device_Library/Class/HID/Src/usbd_hid.c **** }
  38              		.loc 1 458 1 is_stmt 0 view .LVU4
  39 0004 0048     		ldr	r0, .L3
  40              	.LVL1:
  41              		.loc 1 458 1 view .LVU5
  42 0006 7047     		bx	lr
  43              	.L4:
  44              		.align	2
  45              	.L3:
  46 0008 00000000 		.word	.LANCHOR0
  47              		.cfi_endproc
  48              	.LFE71:
  50              		.section	.text.USBD_HID_DataIn,"ax",%progbits
  51              		.align	1
  52              		.p2align 2,,3
  53              		.syntax unified
  54              		.thumb
  55              		.thumb_func
  56              		.fpu softvfp
  58              	USBD_HID_DataIn:
ARM GAS  C:\Users\Eemeli\AppData\Local\Temp\ccp515TO.s 			page 10


  59              	.LVL2:
  60              	.LFB72:
 459:Middlewares/ST/STM32_USB_Device_Library/Class/HID/Src/usbd_hid.c **** 
 460:Middlewares/ST/STM32_USB_Device_Library/Class/HID/Src/usbd_hid.c **** 
 461:Middlewares/ST/STM32_USB_Device_Library/Class/HID/Src/usbd_hid.c **** /**
 462:Middlewares/ST/STM32_USB_Device_Library/Class/HID/Src/usbd_hid.c ****   * @brief  USBD_HID_DataIn
 463:Middlewares/ST/STM32_USB_Device_Library/Class/HID/Src/usbd_hid.c ****   *         handle data IN Stage
 464:Middlewares/ST/STM32_USB_Device_Library/Class/HID/Src/usbd_hid.c ****   * @param  pdev: device instance
 465:Middlewares/ST/STM32_USB_Device_Library/Class/HID/Src/usbd_hid.c ****   * @param  epnum: endpoint index
 466:Middlewares/ST/STM32_USB_Device_Library/Class/HID/Src/usbd_hid.c ****   * @retval status
 467:Middlewares/ST/STM32_USB_Device_Library/Class/HID/Src/usbd_hid.c ****   */
 468:Middlewares/ST/STM32_USB_Device_Library/Class/HID/Src/usbd_hid.c **** static uint8_t  USBD_HID_DataIn (USBD_HandleTypeDef *pdev, 
 469:Middlewares/ST/STM32_USB_Device_Library/Class/HID/Src/usbd_hid.c ****                               uint8_t epnum)
 470:Middlewares/ST/STM32_USB_Device_Library/Class/HID/Src/usbd_hid.c **** {
  61              		.loc 1 470 1 is_stmt 1 view -0
  62              		.cfi_startproc
  63              		@ args = 0, pretend = 0, frame = 0
  64              		@ frame_needed = 0, uses_anonymous_args = 0
  65              		@ link register save eliminated.
 471:Middlewares/ST/STM32_USB_Device_Library/Class/HID/Src/usbd_hid.c ****   
 472:Middlewares/ST/STM32_USB_Device_Library/Class/HID/Src/usbd_hid.c ****   /* Ensure that the FIFO is empty before a new transfer, this condition could 
 473:Middlewares/ST/STM32_USB_Device_Library/Class/HID/Src/usbd_hid.c ****   be caused by  a new transfer before the end of the previous transfer */
 474:Middlewares/ST/STM32_USB_Device_Library/Class/HID/Src/usbd_hid.c ****   ((USBD_HID_HandleTypeDef *)pdev->pClassData)->state = HID_IDLE;
  66              		.loc 1 474 3 view .LVU7
  67              		.loc 1 474 55 is_stmt 0 view .LVU8
  68 0000 0023     		movs	r3, #0
  69 0002 D0F81822 		ldr	r2, [r0, #536]
 475:Middlewares/ST/STM32_USB_Device_Library/Class/HID/Src/usbd_hid.c ****   return USBD_OK;
 476:Middlewares/ST/STM32_USB_Device_Library/Class/HID/Src/usbd_hid.c **** }
  70              		.loc 1 476 1 view .LVU9
  71 0006 1846     		mov	r0, r3
  72              	.LVL3:
 474:Middlewares/ST/STM32_USB_Device_Library/Class/HID/Src/usbd_hid.c ****   return USBD_OK;
  73              		.loc 1 474 55 view .LVU10
  74 0008 1373     		strb	r3, [r2, #12]
 475:Middlewares/ST/STM32_USB_Device_Library/Class/HID/Src/usbd_hid.c ****   return USBD_OK;
  75              		.loc 1 475 3 is_stmt 1 view .LVU11
  76              		.loc 1 476 1 is_stmt 0 view .LVU12
  77 000a 7047     		bx	lr
  78              		.cfi_endproc
  79              	.LFE72:
  81              		.section	.text.USBD_HID_GetDeviceQualifierDesc,"ax",%progbits
  82              		.align	1
  83              		.p2align 2,,3
  84              		.syntax unified
  85              		.thumb
  86              		.thumb_func
  87              		.fpu softvfp
  89              	USBD_HID_GetDeviceQualifierDesc:
  90              	.LVL4:
  91              	.LFB73:
 477:Middlewares/ST/STM32_USB_Device_Library/Class/HID/Src/usbd_hid.c **** 
 478:Middlewares/ST/STM32_USB_Device_Library/Class/HID/Src/usbd_hid.c **** 
 479:Middlewares/ST/STM32_USB_Device_Library/Class/HID/Src/usbd_hid.c **** /**
 480:Middlewares/ST/STM32_USB_Device_Library/Class/HID/Src/usbd_hid.c **** * @brief  DeviceQualifierDescriptor 
 481:Middlewares/ST/STM32_USB_Device_Library/Class/HID/Src/usbd_hid.c **** *         return Device Qualifier descriptor
 482:Middlewares/ST/STM32_USB_Device_Library/Class/HID/Src/usbd_hid.c **** * @param  length : pointer data length
ARM GAS  C:\Users\Eemeli\AppData\Local\Temp\ccp515TO.s 			page 11


 483:Middlewares/ST/STM32_USB_Device_Library/Class/HID/Src/usbd_hid.c **** * @retval pointer to descriptor buffer
 484:Middlewares/ST/STM32_USB_Device_Library/Class/HID/Src/usbd_hid.c **** */
 485:Middlewares/ST/STM32_USB_Device_Library/Class/HID/Src/usbd_hid.c **** static uint8_t  *USBD_HID_GetDeviceQualifierDesc (uint16_t *length)
 486:Middlewares/ST/STM32_USB_Device_Library/Class/HID/Src/usbd_hid.c **** {
  92              		.loc 1 486 1 is_stmt 1 view -0
  93              		.cfi_startproc
  94              		@ args = 0, pretend = 0, frame = 0
  95              		@ frame_needed = 0, uses_anonymous_args = 0
  96              		@ link register save eliminated.
 487:Middlewares/ST/STM32_USB_Device_Library/Class/HID/Src/usbd_hid.c ****   *length = sizeof (USBD_HID_DeviceQualifierDesc);
  97              		.loc 1 487 3 view .LVU14
  98              		.loc 1 487 11 is_stmt 0 view .LVU15
  99 0000 0A23     		movs	r3, #10
 100 0002 0380     		strh	r3, [r0]	@ movhi
 488:Middlewares/ST/STM32_USB_Device_Library/Class/HID/Src/usbd_hid.c ****   return USBD_HID_DeviceQualifierDesc;
 101              		.loc 1 488 3 is_stmt 1 view .LVU16
 489:Middlewares/ST/STM32_USB_Device_Library/Class/HID/Src/usbd_hid.c **** }
 102              		.loc 1 489 1 is_stmt 0 view .LVU17
 103 0004 0048     		ldr	r0, .L7
 104              	.LVL5:
 105              		.loc 1 489 1 view .LVU18
 106 0006 7047     		bx	lr
 107              	.L8:
 108              		.align	2
 109              	.L7:
 110 0008 00000000 		.word	.LANCHOR1
 111              		.cfi_endproc
 112              	.LFE73:
 114              		.section	.text.USBD_HID_Setup,"ax",%progbits
 115              		.align	1
 116              		.p2align 2,,3
 117              		.syntax unified
 118              		.thumb
 119              		.thumb_func
 120              		.fpu softvfp
 122              	USBD_HID_Setup:
 123              	.LVL6:
 124              	.LFB68:
 319:Middlewares/ST/STM32_USB_Device_Library/Class/HID/Src/usbd_hid.c ****   uint16_t len = 0;
 125              		.loc 1 319 1 is_stmt 1 view -0
 126              		.cfi_startproc
 127              		@ args = 0, pretend = 0, frame = 0
 128              		@ frame_needed = 0, uses_anonymous_args = 0
 320:Middlewares/ST/STM32_USB_Device_Library/Class/HID/Src/usbd_hid.c ****   uint8_t  *pbuf = NULL;
 129              		.loc 1 320 3 view .LVU20
 321:Middlewares/ST/STM32_USB_Device_Library/Class/HID/Src/usbd_hid.c ****   USBD_HID_HandleTypeDef     *hhid = (USBD_HID_HandleTypeDef*) pdev->pClassData;
 130              		.loc 1 321 3 view .LVU21
 322:Middlewares/ST/STM32_USB_Device_Library/Class/HID/Src/usbd_hid.c ****   
 131              		.loc 1 322 3 view .LVU22
 319:Middlewares/ST/STM32_USB_Device_Library/Class/HID/Src/usbd_hid.c ****   uint16_t len = 0;
 132              		.loc 1 319 1 is_stmt 0 view .LVU23
 133 0000 38B5     		push	{r3, r4, r5, lr}
 134              	.LCFI0:
 135              		.cfi_def_cfa_offset 16
 136              		.cfi_offset 3, -16
 137              		.cfi_offset 4, -12
 138              		.cfi_offset 5, -8
ARM GAS  C:\Users\Eemeli\AppData\Local\Temp\ccp515TO.s 			page 12


 139              		.cfi_offset 14, -4
 140 0002 0B78     		ldrb	r3, [r1]	@ zero_extendqisi2
 319:Middlewares/ST/STM32_USB_Device_Library/Class/HID/Src/usbd_hid.c ****   uint16_t len = 0;
 141              		.loc 1 319 1 view .LVU24
 142 0004 0546     		mov	r5, r0
 324:Middlewares/ST/STM32_USB_Device_Library/Class/HID/Src/usbd_hid.c ****   {
 143              		.loc 1 324 3 view .LVU25
 144 0006 13F06004 		ands	r4, r3, #96
 322:Middlewares/ST/STM32_USB_Device_Library/Class/HID/Src/usbd_hid.c ****   
 145              		.loc 1 322 31 view .LVU26
 146 000a D0F81822 		ldr	r2, [r0, #536]
 147              	.LVL7:
 324:Middlewares/ST/STM32_USB_Device_Library/Class/HID/Src/usbd_hid.c ****   {
 148              		.loc 1 324 3 is_stmt 1 view .LVU27
 149 000e 0ED0     		beq	.L10
 150 0010 202C     		cmp	r4, #32
 151 0012 0AD1     		bne	.L22
 327:Middlewares/ST/STM32_USB_Device_Library/Class/HID/Src/usbd_hid.c ****     {
 152              		.loc 1 327 5 view .LVU28
 153 0014 4B78     		ldrb	r3, [r1, #1]	@ zero_extendqisi2
 154 0016 023B     		subs	r3, r3, #2
 155 0018 092B     		cmp	r3, #9
 156 001a 28D8     		bhi	.L12
 157 001c DFE803F0 		tbb	[pc, r3]
 158              	.LVL8:
 159              	.L14:
 160 0020 14       		.byte	(.L17-.L14)/2
 161 0021 1B       		.byte	(.L16-.L14)/2
 162 0022 27       		.byte	(.L12-.L14)/2
 163 0023 27       		.byte	(.L12-.L14)/2
 164 0024 27       		.byte	(.L12-.L14)/2
 165 0025 27       		.byte	(.L12-.L14)/2
 166 0026 27       		.byte	(.L12-.L14)/2
 167 0027 27       		.byte	(.L12-.L14)/2
 168 0028 22       		.byte	(.L15-.L14)/2
 169 0029 10       		.byte	(.L13-.L14)/2
 170              		.p2align 1
 171              	.L22:
 389:Middlewares/ST/STM32_USB_Device_Library/Class/HID/Src/usbd_hid.c **** }
 172              		.loc 1 389 10 is_stmt 0 view .LVU29
 173 002a 0020     		movs	r0, #0
 174              	.LVL9:
 390:Middlewares/ST/STM32_USB_Device_Library/Class/HID/Src/usbd_hid.c **** 
 175              		.loc 1 390 1 view .LVU30
 176 002c 38BD     		pop	{r3, r4, r5, pc}
 177              	.LVL10:
 178              	.L10:
 358:Middlewares/ST/STM32_USB_Device_Library/Class/HID/Src/usbd_hid.c ****     {
 179              		.loc 1 358 5 is_stmt 1 view .LVU31
 358:Middlewares/ST/STM32_USB_Device_Library/Class/HID/Src/usbd_hid.c ****     {
 180              		.loc 1 358 16 is_stmt 0 view .LVU32
 181 002e 4B78     		ldrb	r3, [r1, #1]	@ zero_extendqisi2
 182 0030 0A2B     		cmp	r3, #10
 183 0032 32D0     		beq	.L18
 184 0034 0B2B     		cmp	r3, #11
 185 0036 2CD0     		beq	.L19
 186 0038 062B     		cmp	r3, #6
ARM GAS  C:\Users\Eemeli\AppData\Local\Temp\ccp515TO.s 			page 13


 187 003a 1DD0     		beq	.L26
 389:Middlewares/ST/STM32_USB_Device_Library/Class/HID/Src/usbd_hid.c **** }
 188              		.loc 1 389 10 view .LVU33
 189 003c 2046     		mov	r0, r4
 190              	.LVL11:
 390:Middlewares/ST/STM32_USB_Device_Library/Class/HID/Src/usbd_hid.c **** 
 191              		.loc 1 390 1 view .LVU34
 192 003e 38BD     		pop	{r3, r4, r5, pc}
 193              	.LVL12:
 194              	.L13:
 332:Middlewares/ST/STM32_USB_Device_Library/Class/HID/Src/usbd_hid.c ****       break;
 195              		.loc 1 332 7 is_stmt 1 view .LVU35
 332:Middlewares/ST/STM32_USB_Device_Library/Class/HID/Src/usbd_hid.c ****       break;
 196              		.loc 1 332 24 is_stmt 0 view .LVU36
 197 0040 8B78     		ldrb	r3, [r1, #2]	@ zero_extendqisi2
 389:Middlewares/ST/STM32_USB_Device_Library/Class/HID/Src/usbd_hid.c **** }
 198              		.loc 1 389 10 view .LVU37
 199 0042 0020     		movs	r0, #0
 332:Middlewares/ST/STM32_USB_Device_Library/Class/HID/Src/usbd_hid.c ****       break;
 200              		.loc 1 332 24 view .LVU38
 201 0044 1360     		str	r3, [r2]
 333:Middlewares/ST/STM32_USB_Device_Library/Class/HID/Src/usbd_hid.c ****       
 202              		.loc 1 333 7 is_stmt 1 view .LVU39
 390:Middlewares/ST/STM32_USB_Device_Library/Class/HID/Src/usbd_hid.c **** 
 203              		.loc 1 390 1 is_stmt 0 view .LVU40
 204 0046 38BD     		pop	{r3, r4, r5, pc}
 205              	.LVL13:
 206              	.L17:
 346:Middlewares/ST/STM32_USB_Device_Library/Class/HID/Src/usbd_hid.c ****                         (uint8_t *)&hhid->IdleState,
 207              		.loc 1 346 7 is_stmt 1 view .LVU41
 208 0048 111D     		adds	r1, r2, #4
 209              	.LVL14:
 346:Middlewares/ST/STM32_USB_Device_Library/Class/HID/Src/usbd_hid.c ****                         (uint8_t *)&hhid->IdleState,
 210              		.loc 1 346 7 is_stmt 0 view .LVU42
 211 004a 2846     		mov	r0, r5
 212 004c 0122     		movs	r2, #1
 213              	.LVL15:
 346:Middlewares/ST/STM32_USB_Device_Library/Class/HID/Src/usbd_hid.c ****                         (uint8_t *)&hhid->IdleState,
 214              		.loc 1 346 7 view .LVU43
 215 004e FFF7FEFF 		bl	USBD_CtlSendData
 216              	.LVL16:
 349:Middlewares/ST/STM32_USB_Device_Library/Class/HID/Src/usbd_hid.c ****       
 217              		.loc 1 349 7 is_stmt 1 view .LVU44
 389:Middlewares/ST/STM32_USB_Device_Library/Class/HID/Src/usbd_hid.c **** }
 218              		.loc 1 389 10 is_stmt 0 view .LVU45
 219 0052 0020     		movs	r0, #0
 390:Middlewares/ST/STM32_USB_Device_Library/Class/HID/Src/usbd_hid.c **** 
 220              		.loc 1 390 1 view .LVU46
 221 0054 38BD     		pop	{r3, r4, r5, pc}
 222              	.LVL17:
 223              	.L16:
 336:Middlewares/ST/STM32_USB_Device_Library/Class/HID/Src/usbd_hid.c ****                         (uint8_t *)&hhid->Protocol,
 224              		.loc 1 336 7 is_stmt 1 view .LVU47
 225 0056 1146     		mov	r1, r2
 226              	.LVL18:
 336:Middlewares/ST/STM32_USB_Device_Library/Class/HID/Src/usbd_hid.c ****                         (uint8_t *)&hhid->Protocol,
 227              		.loc 1 336 7 is_stmt 0 view .LVU48
ARM GAS  C:\Users\Eemeli\AppData\Local\Temp\ccp515TO.s 			page 14


 228 0058 2846     		mov	r0, r5
 229 005a 0122     		movs	r2, #1
 230              	.LVL19:
 336:Middlewares/ST/STM32_USB_Device_Library/Class/HID/Src/usbd_hid.c ****                         (uint8_t *)&hhid->Protocol,
 231              		.loc 1 336 7 view .LVU49
 232 005c FFF7FEFF 		bl	USBD_CtlSendData
 233              	.LVL20:
 339:Middlewares/ST/STM32_USB_Device_Library/Class/HID/Src/usbd_hid.c ****       
 234              		.loc 1 339 7 is_stmt 1 view .LVU50
 389:Middlewares/ST/STM32_USB_Device_Library/Class/HID/Src/usbd_hid.c **** }
 235              		.loc 1 389 10 is_stmt 0 view .LVU51
 236 0060 0020     		movs	r0, #0
 390:Middlewares/ST/STM32_USB_Device_Library/Class/HID/Src/usbd_hid.c **** 
 237              		.loc 1 390 1 view .LVU52
 238 0062 38BD     		pop	{r3, r4, r5, pc}
 239              	.LVL21:
 240              	.L15:
 342:Middlewares/ST/STM32_USB_Device_Library/Class/HID/Src/usbd_hid.c ****       break;
 241              		.loc 1 342 7 is_stmt 1 view .LVU53
 342:Middlewares/ST/STM32_USB_Device_Library/Class/HID/Src/usbd_hid.c ****       break;
 242              		.loc 1 342 25 is_stmt 0 view .LVU54
 243 0064 4B88     		ldrh	r3, [r1, #2]
 389:Middlewares/ST/STM32_USB_Device_Library/Class/HID/Src/usbd_hid.c **** }
 244              		.loc 1 389 10 view .LVU55
 245 0066 0020     		movs	r0, #0
 342:Middlewares/ST/STM32_USB_Device_Library/Class/HID/Src/usbd_hid.c ****       break;
 246              		.loc 1 342 25 view .LVU56
 247 0068 1B0A     		lsrs	r3, r3, #8
 248 006a 5360     		str	r3, [r2, #4]
 343:Middlewares/ST/STM32_USB_Device_Library/Class/HID/Src/usbd_hid.c ****       
 249              		.loc 1 343 7 is_stmt 1 view .LVU57
 390:Middlewares/ST/STM32_USB_Device_Library/Class/HID/Src/usbd_hid.c **** 
 250              		.loc 1 390 1 is_stmt 0 view .LVU58
 251 006c 38BD     		pop	{r3, r4, r5, pc}
 252              	.LVL22:
 253              	.L12:
 352:Middlewares/ST/STM32_USB_Device_Library/Class/HID/Src/usbd_hid.c ****       return USBD_FAIL; 
 254              		.loc 1 352 7 is_stmt 1 view .LVU59
 255 006e 2846     		mov	r0, r5
 256 0070 FFF7FEFF 		bl	USBD_CtlError
 257              	.LVL23:
 353:Middlewares/ST/STM32_USB_Device_Library/Class/HID/Src/usbd_hid.c ****     }
 258              		.loc 1 353 7 view .LVU60
 353:Middlewares/ST/STM32_USB_Device_Library/Class/HID/Src/usbd_hid.c ****     }
 259              		.loc 1 353 14 is_stmt 0 view .LVU61
 260 0074 0220     		movs	r0, #2
 390:Middlewares/ST/STM32_USB_Device_Library/Class/HID/Src/usbd_hid.c **** 
 261              		.loc 1 390 1 view .LVU62
 262 0076 38BD     		pop	{r3, r4, r5, pc}
 263              	.LVL24:
 264              	.L26:
 361:Middlewares/ST/STM32_USB_Device_Library/Class/HID/Src/usbd_hid.c ****       {
 265              		.loc 1 361 7 is_stmt 1 view .LVU63
 361:Middlewares/ST/STM32_USB_Device_Library/Class/HID/Src/usbd_hid.c ****       {
 266              		.loc 1 361 28 is_stmt 0 view .LVU64
 267 0078 4B88     		ldrh	r3, [r1, #2]
 268 007a 1B0A     		lsrs	r3, r3, #8
ARM GAS  C:\Users\Eemeli\AppData\Local\Temp\ccp515TO.s 			page 15


 361:Middlewares/ST/STM32_USB_Device_Library/Class/HID/Src/usbd_hid.c ****       {
 269              		.loc 1 361 9 view .LVU65
 270 007c 222B     		cmp	r3, #34
 271 007e 19D0     		beq	.L27
 366:Middlewares/ST/STM32_USB_Device_Library/Class/HID/Src/usbd_hid.c ****       {
 272              		.loc 1 366 12 is_stmt 1 view .LVU66
 366:Middlewares/ST/STM32_USB_Device_Library/Class/HID/Src/usbd_hid.c ****       {
 273              		.loc 1 366 14 is_stmt 0 view .LVU67
 274 0080 212B     		cmp	r3, #33
 275 0082 11D0     		beq	.L28
 321:Middlewares/ST/STM32_USB_Device_Library/Class/HID/Src/usbd_hid.c ****   USBD_HID_HandleTypeDef     *hhid = (USBD_HID_HandleTypeDef*) pdev->pClassData;
 276              		.loc 1 321 13 view .LVU68
 277 0084 2146     		mov	r1, r4
 278              	.LVL25:
 320:Middlewares/ST/STM32_USB_Device_Library/Class/HID/Src/usbd_hid.c ****   uint8_t  *pbuf = NULL;
 279              		.loc 1 320 12 view .LVU69
 280 0086 2246     		mov	r2, r4
 281              	.LVL26:
 282              	.L21:
 372:Middlewares/ST/STM32_USB_Device_Library/Class/HID/Src/usbd_hid.c ****                         pbuf,
 283              		.loc 1 372 7 is_stmt 1 view .LVU70
 284 0088 2846     		mov	r0, r5
 285              	.LVL27:
 372:Middlewares/ST/STM32_USB_Device_Library/Class/HID/Src/usbd_hid.c ****                         pbuf,
 286              		.loc 1 372 7 is_stmt 0 view .LVU71
 287 008a FFF7FEFF 		bl	USBD_CtlSendData
 288              	.LVL28:
 376:Middlewares/ST/STM32_USB_Device_Library/Class/HID/Src/usbd_hid.c ****       
 289              		.loc 1 376 7 is_stmt 1 view .LVU72
 389:Middlewares/ST/STM32_USB_Device_Library/Class/HID/Src/usbd_hid.c **** }
 290              		.loc 1 389 10 is_stmt 0 view .LVU73
 291 008e 0020     		movs	r0, #0
 390:Middlewares/ST/STM32_USB_Device_Library/Class/HID/Src/usbd_hid.c **** 
 292              		.loc 1 390 1 view .LVU74
 293 0090 38BD     		pop	{r3, r4, r5, pc}
 294              	.LVL29:
 295              	.L19:
 385:Middlewares/ST/STM32_USB_Device_Library/Class/HID/Src/usbd_hid.c ****       break;
 296              		.loc 1 385 7 is_stmt 1 view .LVU75
 385:Middlewares/ST/STM32_USB_Device_Library/Class/HID/Src/usbd_hid.c ****       break;
 297              		.loc 1 385 26 is_stmt 0 view .LVU76
 298 0092 8B78     		ldrb	r3, [r1, #2]	@ zero_extendqisi2
 389:Middlewares/ST/STM32_USB_Device_Library/Class/HID/Src/usbd_hid.c **** }
 299              		.loc 1 389 10 view .LVU77
 300 0094 2046     		mov	r0, r4
 301              	.LVL30:
 385:Middlewares/ST/STM32_USB_Device_Library/Class/HID/Src/usbd_hid.c ****       break;
 302              		.loc 1 385 26 view .LVU78
 303 0096 9360     		str	r3, [r2, #8]
 386:Middlewares/ST/STM32_USB_Device_Library/Class/HID/Src/usbd_hid.c ****     }
 304              		.loc 1 386 7 is_stmt 1 view .LVU79
 390:Middlewares/ST/STM32_USB_Device_Library/Class/HID/Src/usbd_hid.c **** 
 305              		.loc 1 390 1 is_stmt 0 view .LVU80
 306 0098 38BD     		pop	{r3, r4, r5, pc}
 307              	.LVL31:
 308              	.L18:
 379:Middlewares/ST/STM32_USB_Device_Library/Class/HID/Src/usbd_hid.c ****                         (uint8_t *)&hhid->AltSetting,
ARM GAS  C:\Users\Eemeli\AppData\Local\Temp\ccp515TO.s 			page 16


 309              		.loc 1 379 7 is_stmt 1 view .LVU81
 310 009a 02F10801 		add	r1, r2, #8
 311              	.LVL32:
 379:Middlewares/ST/STM32_USB_Device_Library/Class/HID/Src/usbd_hid.c ****                         (uint8_t *)&hhid->AltSetting,
 312              		.loc 1 379 7 is_stmt 0 view .LVU82
 313 009e 0122     		movs	r2, #1
 314              	.LVL33:
 379:Middlewares/ST/STM32_USB_Device_Library/Class/HID/Src/usbd_hid.c ****                         (uint8_t *)&hhid->AltSetting,
 315              		.loc 1 379 7 view .LVU83
 316 00a0 FFF7FEFF 		bl	USBD_CtlSendData
 317              	.LVL34:
 382:Middlewares/ST/STM32_USB_Device_Library/Class/HID/Src/usbd_hid.c ****       
 318              		.loc 1 382 7 is_stmt 1 view .LVU84
 389:Middlewares/ST/STM32_USB_Device_Library/Class/HID/Src/usbd_hid.c **** }
 319              		.loc 1 389 10 is_stmt 0 view .LVU85
 320 00a4 2046     		mov	r0, r4
 390:Middlewares/ST/STM32_USB_Device_Library/Class/HID/Src/usbd_hid.c **** 
 321              		.loc 1 390 1 view .LVU86
 322 00a6 38BD     		pop	{r3, r4, r5, pc}
 323              	.LVL35:
 324              	.L28:
 368:Middlewares/ST/STM32_USB_Device_Library/Class/HID/Src/usbd_hid.c ****         len = MIN(USB_HID_DESC_SIZ , req->wLength);
 325              		.loc 1 368 9 is_stmt 1 view .LVU87
 369:Middlewares/ST/STM32_USB_Device_Library/Class/HID/Src/usbd_hid.c ****       }
 326              		.loc 1 369 9 view .LVU88
 369:Middlewares/ST/STM32_USB_Device_Library/Class/HID/Src/usbd_hid.c ****       }
 327              		.loc 1 369 13 is_stmt 0 view .LVU89
 328 00a8 CA88     		ldrh	r2, [r1, #6]
 329              	.LVL36:
 368:Middlewares/ST/STM32_USB_Device_Library/Class/HID/Src/usbd_hid.c ****         len = MIN(USB_HID_DESC_SIZ , req->wLength);
 330              		.loc 1 368 14 view .LVU90
 331 00aa 0549     		ldr	r1, .L29
 332              	.LVL37:
 369:Middlewares/ST/STM32_USB_Device_Library/Class/HID/Src/usbd_hid.c ****       }
 333              		.loc 1 369 13 view .LVU91
 334 00ac 092A     		cmp	r2, #9
 335 00ae 28BF     		it	cs
 336 00b0 0922     		movcs	r2, #9
 337              	.LVL38:
 369:Middlewares/ST/STM32_USB_Device_Library/Class/HID/Src/usbd_hid.c ****       }
 338              		.loc 1 369 13 view .LVU92
 339 00b2 E9E7     		b	.L21
 340              	.LVL39:
 341              	.L27:
 363:Middlewares/ST/STM32_USB_Device_Library/Class/HID/Src/usbd_hid.c ****         pbuf = HID_KEYBOARD_ReportDesc;
 342              		.loc 1 363 9 is_stmt 1 view .LVU93
 363:Middlewares/ST/STM32_USB_Device_Library/Class/HID/Src/usbd_hid.c ****         pbuf = HID_KEYBOARD_ReportDesc;
 343              		.loc 1 363 13 is_stmt 0 view .LVU94
 344 00b4 CA88     		ldrh	r2, [r1, #6]
 345              	.LVL40:
 364:Middlewares/ST/STM32_USB_Device_Library/Class/HID/Src/usbd_hid.c ****       }
 346              		.loc 1 364 14 view .LVU95
 347 00b6 0349     		ldr	r1, .L29+4
 348              	.LVL41:
 363:Middlewares/ST/STM32_USB_Device_Library/Class/HID/Src/usbd_hid.c ****         pbuf = HID_KEYBOARD_ReportDesc;
 349              		.loc 1 363 13 view .LVU96
 350 00b8 2D2A     		cmp	r2, #45
ARM GAS  C:\Users\Eemeli\AppData\Local\Temp\ccp515TO.s 			page 17


 351 00ba 28BF     		it	cs
 352 00bc 2D22     		movcs	r2, #45
 353              	.LVL42:
 364:Middlewares/ST/STM32_USB_Device_Library/Class/HID/Src/usbd_hid.c ****       }
 354              		.loc 1 364 9 is_stmt 1 view .LVU97
 364:Middlewares/ST/STM32_USB_Device_Library/Class/HID/Src/usbd_hid.c ****       }
 355              		.loc 1 364 9 is_stmt 0 view .LVU98
 356 00be E3E7     		b	.L21
 357              	.L30:
 358              		.align	2
 359              	.L29:
 360 00c0 00000000 		.word	.LANCHOR3
 361 00c4 00000000 		.word	.LANCHOR2
 362              		.cfi_endproc
 363              	.LFE68:
 365              		.section	.text.USBD_HID_DeInit,"ax",%progbits
 366              		.align	1
 367              		.p2align 2,,3
 368              		.syntax unified
 369              		.thumb
 370              		.thumb_func
 371              		.fpu softvfp
 373              	USBD_HID_DeInit:
 374              	.LVL43:
 375              	.LFB67:
 295:Middlewares/ST/STM32_USB_Device_Library/Class/HID/Src/usbd_hid.c ****   /* Close HID EPs */
 376              		.loc 1 295 1 is_stmt 1 view -0
 377              		.cfi_startproc
 378              		@ args = 0, pretend = 0, frame = 0
 379              		@ frame_needed = 0, uses_anonymous_args = 0
 297:Middlewares/ST/STM32_USB_Device_Library/Class/HID/Src/usbd_hid.c ****                   HID_EPIN_ADDR);
 380              		.loc 1 297 3 view .LVU100
 295:Middlewares/ST/STM32_USB_Device_Library/Class/HID/Src/usbd_hid.c ****   /* Close HID EPs */
 381              		.loc 1 295 1 is_stmt 0 view .LVU101
 382 0000 10B5     		push	{r4, lr}
 383              	.LCFI1:
 384              		.cfi_def_cfa_offset 8
 385              		.cfi_offset 4, -8
 386              		.cfi_offset 14, -4
 295:Middlewares/ST/STM32_USB_Device_Library/Class/HID/Src/usbd_hid.c ****   /* Close HID EPs */
 387              		.loc 1 295 1 view .LVU102
 388 0002 0446     		mov	r4, r0
 297:Middlewares/ST/STM32_USB_Device_Library/Class/HID/Src/usbd_hid.c ****                   HID_EPIN_ADDR);
 389              		.loc 1 297 3 view .LVU103
 390 0004 8121     		movs	r1, #129
 391              	.LVL44:
 297:Middlewares/ST/STM32_USB_Device_Library/Class/HID/Src/usbd_hid.c ****                   HID_EPIN_ADDR);
 392              		.loc 1 297 3 view .LVU104
 393 0006 FFF7FEFF 		bl	USBD_LL_CloseEP
 394              	.LVL45:
 301:Middlewares/ST/STM32_USB_Device_Library/Class/HID/Src/usbd_hid.c ****   {
 395              		.loc 1 301 3 is_stmt 1 view .LVU105
 301:Middlewares/ST/STM32_USB_Device_Library/Class/HID/Src/usbd_hid.c ****   {
 396              		.loc 1 301 10 is_stmt 0 view .LVU106
 397 000a D4F81802 		ldr	r0, [r4, #536]
 301:Middlewares/ST/STM32_USB_Device_Library/Class/HID/Src/usbd_hid.c ****   {
 398              		.loc 1 301 5 view .LVU107
ARM GAS  C:\Users\Eemeli\AppData\Local\Temp\ccp515TO.s 			page 18


 399 000e 20B1     		cbz	r0, .L32
 303:Middlewares/ST/STM32_USB_Device_Library/Class/HID/Src/usbd_hid.c ****     pdev->pClassData = NULL;
 400              		.loc 1 303 5 is_stmt 1 view .LVU108
 401 0010 FFF7FEFF 		bl	USBD_static_free
 402              	.LVL46:
 304:Middlewares/ST/STM32_USB_Device_Library/Class/HID/Src/usbd_hid.c ****   } 
 403              		.loc 1 304 5 view .LVU109
 304:Middlewares/ST/STM32_USB_Device_Library/Class/HID/Src/usbd_hid.c ****   } 
 404              		.loc 1 304 22 is_stmt 0 view .LVU110
 405 0014 0023     		movs	r3, #0
 406 0016 C4F81832 		str	r3, [r4, #536]
 407              	.L32:
 307:Middlewares/ST/STM32_USB_Device_Library/Class/HID/Src/usbd_hid.c **** }
 408              		.loc 1 307 3 is_stmt 1 view .LVU111
 308:Middlewares/ST/STM32_USB_Device_Library/Class/HID/Src/usbd_hid.c **** 
 409              		.loc 1 308 1 is_stmt 0 view .LVU112
 410 001a 0020     		movs	r0, #0
 411 001c 10BD     		pop	{r4, pc}
 308:Middlewares/ST/STM32_USB_Device_Library/Class/HID/Src/usbd_hid.c **** 
 412              		.loc 1 308 1 view .LVU113
 413              		.cfi_endproc
 414              	.LFE67:
 416 001e 00BF     		.section	.text.USBD_HID_Init,"ax",%progbits
 417              		.align	1
 418              		.p2align 2,,3
 419              		.syntax unified
 420              		.thumb
 421              		.thumb_func
 422              		.fpu softvfp
 424              	USBD_HID_Init:
 425              	.LVL47:
 426              	.LFB66:
 264:Middlewares/ST/STM32_USB_Device_Library/Class/HID/Src/usbd_hid.c ****   uint8_t ret = 0;
 427              		.loc 1 264 1 is_stmt 1 view -0
 428              		.cfi_startproc
 429              		@ args = 0, pretend = 0, frame = 0
 430              		@ frame_needed = 0, uses_anonymous_args = 0
 265:Middlewares/ST/STM32_USB_Device_Library/Class/HID/Src/usbd_hid.c ****   
 431              		.loc 1 265 3 view .LVU115
 268:Middlewares/ST/STM32_USB_Device_Library/Class/HID/Src/usbd_hid.c ****                  HID_EPIN_ADDR,
 432              		.loc 1 268 3 view .LVU116
 264:Middlewares/ST/STM32_USB_Device_Library/Class/HID/Src/usbd_hid.c ****   uint8_t ret = 0;
 433              		.loc 1 264 1 is_stmt 0 view .LVU117
 434 0000 10B5     		push	{r4, lr}
 435              	.LCFI2:
 436              		.cfi_def_cfa_offset 8
 437              		.cfi_offset 4, -8
 438              		.cfi_offset 14, -4
 268:Middlewares/ST/STM32_USB_Device_Library/Class/HID/Src/usbd_hid.c ****                  HID_EPIN_ADDR,
 439              		.loc 1 268 3 view .LVU118
 440 0002 0423     		movs	r3, #4
 441 0004 0322     		movs	r2, #3
 442 0006 8121     		movs	r1, #129
 443              	.LVL48:
 264:Middlewares/ST/STM32_USB_Device_Library/Class/HID/Src/usbd_hid.c ****   uint8_t ret = 0;
 444              		.loc 1 264 1 view .LVU119
 445 0008 0446     		mov	r4, r0
ARM GAS  C:\Users\Eemeli\AppData\Local\Temp\ccp515TO.s 			page 19


 268:Middlewares/ST/STM32_USB_Device_Library/Class/HID/Src/usbd_hid.c ****                  HID_EPIN_ADDR,
 446              		.loc 1 268 3 view .LVU120
 447 000a FFF7FEFF 		bl	USBD_LL_OpenEP
 448              	.LVL49:
 273:Middlewares/ST/STM32_USB_Device_Library/Class/HID/Src/usbd_hid.c ****   
 449              		.loc 1 273 3 is_stmt 1 view .LVU121
 273:Middlewares/ST/STM32_USB_Device_Library/Class/HID/Src/usbd_hid.c ****   
 450              		.loc 1 273 22 is_stmt 0 view .LVU122
 451 000e 1020     		movs	r0, #16
 452 0010 FFF7FEFF 		bl	USBD_static_malloc
 453              	.LVL50:
 273:Middlewares/ST/STM32_USB_Device_Library/Class/HID/Src/usbd_hid.c ****   
 454              		.loc 1 273 20 view .LVU123
 455 0014 C4F81802 		str	r0, [r4, #536]
 275:Middlewares/ST/STM32_USB_Device_Library/Class/HID/Src/usbd_hid.c ****   {
 456              		.loc 1 275 3 is_stmt 1 view .LVU124
 275:Middlewares/ST/STM32_USB_Device_Library/Class/HID/Src/usbd_hid.c ****   {
 457              		.loc 1 275 5 is_stmt 0 view .LVU125
 458 0018 18B1     		cbz	r0, .L39
 281:Middlewares/ST/STM32_USB_Device_Library/Class/HID/Src/usbd_hid.c ****   }
 459              		.loc 1 281 5 is_stmt 1 view .LVU126
 281:Middlewares/ST/STM32_USB_Device_Library/Class/HID/Src/usbd_hid.c ****   }
 460              		.loc 1 281 57 is_stmt 0 view .LVU127
 461 001a 0023     		movs	r3, #0
 462 001c 0373     		strb	r3, [r0, #12]
 265:Middlewares/ST/STM32_USB_Device_Library/Class/HID/Src/usbd_hid.c ****   
 463              		.loc 1 265 11 view .LVU128
 464 001e 1846     		mov	r0, r3
 465              	.LVL51:
 283:Middlewares/ST/STM32_USB_Device_Library/Class/HID/Src/usbd_hid.c **** }
 466              		.loc 1 283 3 is_stmt 1 view .LVU129
 284:Middlewares/ST/STM32_USB_Device_Library/Class/HID/Src/usbd_hid.c **** 
 467              		.loc 1 284 1 is_stmt 0 view .LVU130
 468 0020 10BD     		pop	{r4, pc}
 469              	.LVL52:
 470              	.L39:
 277:Middlewares/ST/STM32_USB_Device_Library/Class/HID/Src/usbd_hid.c ****   }
 471              		.loc 1 277 9 view .LVU131
 472 0022 0120     		movs	r0, #1
 473              	.LVL53:
 283:Middlewares/ST/STM32_USB_Device_Library/Class/HID/Src/usbd_hid.c **** }
 474              		.loc 1 283 3 is_stmt 1 view .LVU132
 284:Middlewares/ST/STM32_USB_Device_Library/Class/HID/Src/usbd_hid.c **** 
 475              		.loc 1 284 1 is_stmt 0 view .LVU133
 476 0024 10BD     		pop	{r4, pc}
 284:Middlewares/ST/STM32_USB_Device_Library/Class/HID/Src/usbd_hid.c **** 
 477              		.loc 1 284 1 view .LVU134
 478              		.cfi_endproc
 479              	.LFE66:
 481 0026 00BF     		.section	.text.USBD_HID_SendReport,"ax",%progbits
 482              		.align	1
 483              		.p2align 2,,3
 484              		.global	USBD_HID_SendReport
 485              		.syntax unified
 486              		.thumb
 487              		.thumb_func
 488              		.fpu softvfp
ARM GAS  C:\Users\Eemeli\AppData\Local\Temp\ccp515TO.s 			page 20


 490              	USBD_HID_SendReport:
 491              	.LVL54:
 492              	.LFB69:
 402:Middlewares/ST/STM32_USB_Device_Library/Class/HID/Src/usbd_hid.c ****   USBD_HID_HandleTypeDef     *hhid = (USBD_HID_HandleTypeDef*)pdev->pClassData;
 493              		.loc 1 402 1 is_stmt 1 view -0
 494              		.cfi_startproc
 495              		@ args = 0, pretend = 0, frame = 0
 496              		@ frame_needed = 0, uses_anonymous_args = 0
 403:Middlewares/ST/STM32_USB_Device_Library/Class/HID/Src/usbd_hid.c ****   
 497              		.loc 1 403 3 view .LVU136
 405:Middlewares/ST/STM32_USB_Device_Library/Class/HID/Src/usbd_hid.c ****   {
 498              		.loc 1 405 3 view .LVU137
 402:Middlewares/ST/STM32_USB_Device_Library/Class/HID/Src/usbd_hid.c ****   USBD_HID_HandleTypeDef     *hhid = (USBD_HID_HandleTypeDef*)pdev->pClassData;
 499              		.loc 1 402 1 is_stmt 0 view .LVU138
 500 0000 38B5     		push	{r3, r4, r5, lr}
 501              	.LCFI3:
 502              		.cfi_def_cfa_offset 16
 503              		.cfi_offset 3, -16
 504              		.cfi_offset 4, -12
 505              		.cfi_offset 5, -8
 506              		.cfi_offset 14, -4
 405:Middlewares/ST/STM32_USB_Device_Library/Class/HID/Src/usbd_hid.c ****   {
 507              		.loc 1 405 6 view .LVU139
 508 0002 90F8FC51 		ldrb	r5, [r0, #508]	@ zero_extendqisi2
 509 0006 032D     		cmp	r5, #3
 510 0008 01D0     		beq	.L44
 511              	.L42:
 416:Middlewares/ST/STM32_USB_Device_Library/Class/HID/Src/usbd_hid.c **** }
 512              		.loc 1 416 3 is_stmt 1 view .LVU140
 417:Middlewares/ST/STM32_USB_Device_Library/Class/HID/Src/usbd_hid.c **** 
 513              		.loc 1 417 1 is_stmt 0 view .LVU141
 514 000a 0020     		movs	r0, #0
 515              	.LVL55:
 417:Middlewares/ST/STM32_USB_Device_Library/Class/HID/Src/usbd_hid.c **** 
 516              		.loc 1 417 1 view .LVU142
 517 000c 38BD     		pop	{r3, r4, r5, pc}
 518              	.LVL56:
 519              	.L44:
 403:Middlewares/ST/STM32_USB_Device_Library/Class/HID/Src/usbd_hid.c ****   
 520              		.loc 1 403 31 view .LVU143
 521 000e D0F81842 		ldr	r4, [r0, #536]
 407:Middlewares/ST/STM32_USB_Device_Library/Class/HID/Src/usbd_hid.c ****     {
 522              		.loc 1 407 5 is_stmt 1 view .LVU144
 407:Middlewares/ST/STM32_USB_Device_Library/Class/HID/Src/usbd_hid.c ****     {
 523              		.loc 1 407 7 is_stmt 0 view .LVU145
 524 0012 237B     		ldrb	r3, [r4, #12]	@ zero_extendqisi2
 525 0014 002B     		cmp	r3, #0
 526 0016 F8D1     		bne	.L42
 527 0018 1346     		mov	r3, r2
 528 001a 0A46     		mov	r2, r1
 529              	.LVL57:
 409:Middlewares/ST/STM32_USB_Device_Library/Class/HID/Src/usbd_hid.c ****       USBD_LL_Transmit (pdev, 
 530              		.loc 1 409 7 is_stmt 1 view .LVU146
 409:Middlewares/ST/STM32_USB_Device_Library/Class/HID/Src/usbd_hid.c ****       USBD_LL_Transmit (pdev, 
 531              		.loc 1 409 19 is_stmt 0 view .LVU147
 532 001c 0121     		movs	r1, #1
 533              	.LVL58:
ARM GAS  C:\Users\Eemeli\AppData\Local\Temp\ccp515TO.s 			page 21


 409:Middlewares/ST/STM32_USB_Device_Library/Class/HID/Src/usbd_hid.c ****       USBD_LL_Transmit (pdev, 
 534              		.loc 1 409 19 view .LVU148
 535 001e 2173     		strb	r1, [r4, #12]
 410:Middlewares/ST/STM32_USB_Device_Library/Class/HID/Src/usbd_hid.c ****                         HID_EPIN_ADDR,                                      
 536              		.loc 1 410 7 is_stmt 1 view .LVU149
 537 0020 8121     		movs	r1, #129
 538 0022 FFF7FEFF 		bl	USBD_LL_Transmit
 539              	.LVL59:
 416:Middlewares/ST/STM32_USB_Device_Library/Class/HID/Src/usbd_hid.c **** }
 540              		.loc 1 416 3 view .LVU150
 417:Middlewares/ST/STM32_USB_Device_Library/Class/HID/Src/usbd_hid.c **** 
 541              		.loc 1 417 1 is_stmt 0 view .LVU151
 542 0026 0020     		movs	r0, #0
 543 0028 38BD     		pop	{r3, r4, r5, pc}
 544              		.cfi_endproc
 545              	.LFE69:
 547 002a 00BF     		.section	.text.USBD_HID_GetPollingInterval,"ax",%progbits
 548              		.align	1
 549              		.p2align 2,,3
 550              		.global	USBD_HID_GetPollingInterval
 551              		.syntax unified
 552              		.thumb
 553              		.thumb_func
 554              		.fpu softvfp
 556              	USBD_HID_GetPollingInterval:
 557              	.LVL60:
 558              	.LFB70:
 426:Middlewares/ST/STM32_USB_Device_Library/Class/HID/Src/usbd_hid.c ****   uint32_t polling_interval = 0;
 559              		.loc 1 426 1 is_stmt 1 view -0
 560              		.cfi_startproc
 561              		@ args = 0, pretend = 0, frame = 0
 562              		@ frame_needed = 0, uses_anonymous_args = 0
 563              		@ link register save eliminated.
 427:Middlewares/ST/STM32_USB_Device_Library/Class/HID/Src/usbd_hid.c **** 
 564              		.loc 1 427 3 view .LVU153
 430:Middlewares/ST/STM32_USB_Device_Library/Class/HID/Src/usbd_hid.c ****   {
 565              		.loc 1 430 3 view .LVU154
 430:Middlewares/ST/STM32_USB_Device_Library/Class/HID/Src/usbd_hid.c ****   {
 566              		.loc 1 430 5 is_stmt 0 view .LVU155
 567 0000 037C     		ldrb	r3, [r0, #16]	@ zero_extendqisi2
 568 0002 002B     		cmp	r3, #0
 445:Middlewares/ST/STM32_USB_Device_Library/Class/HID/Src/usbd_hid.c **** 
 569              		.loc 1 445 1 view .LVU156
 570 0004 0CBF     		ite	eq
 571 0006 0820     		moveq	r0, #8
 572              	.LVL61:
 445:Middlewares/ST/STM32_USB_Device_Library/Class/HID/Src/usbd_hid.c **** 
 573              		.loc 1 445 1 view .LVU157
 574 0008 0A20     		movne	r0, #10
 575 000a 7047     		bx	lr
 576              		.cfi_endproc
 577              	.LFE70:
 579              		.global	USBD_HID
 580              		.section	.data.HID_KEYBOARD_ReportDesc,"aw"
 581              		.align	2
 582              		.set	.LANCHOR2,. + 0
 585              	HID_KEYBOARD_ReportDesc:
ARM GAS  C:\Users\Eemeli\AppData\Local\Temp\ccp515TO.s 			page 22


 586 0000 05       		.byte	5
 587 0001 01       		.byte	1
 588 0002 09       		.byte	9
 589 0003 06       		.byte	6
 590 0004 A1       		.byte	-95
 591 0005 01       		.byte	1
 592 0006 05       		.byte	5
 593 0007 07       		.byte	7
 594 0008 19       		.byte	25
 595 0009 E0       		.byte	-32
 596 000a 29       		.byte	41
 597 000b E7       		.byte	-25
 598 000c 15       		.byte	21
 599 000d 00       		.byte	0
 600 000e 25       		.byte	37
 601 000f 01       		.byte	1
 602 0010 75       		.byte	117
 603 0011 01       		.byte	1
 604 0012 95       		.byte	-107
 605 0013 08       		.byte	8
 606 0014 81       		.byte	-127
 607 0015 02       		.byte	2
 608 0016 95       		.byte	-107
 609 0017 01       		.byte	1
 610 0018 75       		.byte	117
 611 0019 08       		.byte	8
 612 001a 81       		.byte	-127
 613 001b 03       		.byte	3
 614 001c 95       		.byte	-107
 615 001d 06       		.byte	6
 616 001e 75       		.byte	117
 617 001f 08       		.byte	8
 618 0020 15       		.byte	21
 619 0021 00       		.byte	0
 620 0022 25       		.byte	37
 621 0023 65       		.byte	101
 622 0024 05       		.byte	5
 623 0025 07       		.byte	7
 624 0026 19       		.byte	25
 625 0027 00       		.byte	0
 626 0028 29       		.byte	41
 627 0029 65       		.byte	101
 628 002a 81       		.byte	-127
 629 002b 00       		.byte	0
 630 002c C0       		.byte	-64
 631              		.section	.data.USBD_HID,"aw"
 632              		.align	2
 635              	USBD_HID:
 636 0000 00000000 		.word	USBD_HID_Init
 637 0004 00000000 		.word	USBD_HID_DeInit
 638 0008 00000000 		.word	USBD_HID_Setup
 639 000c 00000000 		.word	0
 640 0010 00000000 		.word	0
 641 0014 00000000 		.word	USBD_HID_DataIn
 642 0018 00000000 		.word	0
 643 001c 00000000 		.word	0
 644 0020 00000000 		.word	0
ARM GAS  C:\Users\Eemeli\AppData\Local\Temp\ccp515TO.s 			page 23


 645 0024 00000000 		.word	0
 646 0028 00000000 		.word	USBD_HID_GetCfgDesc
 647 002c 00000000 		.word	USBD_HID_GetCfgDesc
 648 0030 00000000 		.word	USBD_HID_GetCfgDesc
 649 0034 00000000 		.word	USBD_HID_GetDeviceQualifierDesc
 650              		.section	.data.USBD_HID_CfgDesc,"aw"
 651              		.align	2
 652              		.set	.LANCHOR0,. + 0
 655              	USBD_HID_CfgDesc:
 656 0000 09       		.byte	9
 657 0001 02       		.byte	2
 658 0002 22       		.byte	34
 659 0003 00       		.byte	0
 660 0004 01       		.byte	1
 661 0005 01       		.byte	1
 662 0006 00       		.byte	0
 663 0007 E0       		.byte	-32
 664 0008 32       		.byte	50
 665 0009 09       		.byte	9
 666 000a 04       		.byte	4
 667 000b 00       		.byte	0
 668 000c 00       		.byte	0
 669 000d 01       		.byte	1
 670 000e 03       		.byte	3
 671 000f 01       		.byte	1
 672 0010 01       		.byte	1
 673 0011 00       		.byte	0
 674 0012 09       		.byte	9
 675 0013 21       		.byte	33
 676 0014 11       		.byte	17
 677 0015 01       		.byte	1
 678 0016 00       		.byte	0
 679 0017 01       		.byte	1
 680 0018 22       		.byte	34
 681 0019 2D       		.byte	45
 682 001a 00       		.byte	0
 683 001b 07       		.byte	7
 684 001c 05       		.byte	5
 685 001d 81       		.byte	-127
 686 001e 03       		.byte	3
 687 001f 04       		.byte	4
 688 0020 00       		.byte	0
 689 0021 0A       		.byte	10
 690              		.section	.data.USBD_HID_Desc,"aw"
 691              		.align	2
 692              		.set	.LANCHOR3,. + 0
 695              	USBD_HID_Desc:
 696 0000 09       		.byte	9
 697 0001 21       		.byte	33
 698 0002 11       		.byte	17
 699 0003 01       		.byte	1
 700 0004 00       		.byte	0
 701 0005 01       		.byte	1
 702 0006 22       		.byte	34
 703 0007 2D       		.byte	45
 704 0008 00       		.byte	0
 705              		.section	.data.USBD_HID_DeviceQualifierDesc,"aw"
ARM GAS  C:\Users\Eemeli\AppData\Local\Temp\ccp515TO.s 			page 24


 706              		.align	2
 707              		.set	.LANCHOR1,. + 0
 710              	USBD_HID_DeviceQualifierDesc:
 711 0000 0A       		.byte	10
 712 0001 06       		.byte	6
 713 0002 00       		.byte	0
 714 0003 02       		.byte	2
 715 0004 00       		.byte	0
 716 0005 00       		.byte	0
 717 0006 00       		.byte	0
 718 0007 40       		.byte	64
 719 0008 01       		.byte	1
 720 0009 00       		.byte	0
 721              		.text
 722              	.Letext0:
 723              		.file 2 "d:\\vsarm\\armcc\\arm-none-eabi\\include\\machine\\_default_types.h"
 724              		.file 3 "d:\\vsarm\\armcc\\arm-none-eabi\\include\\sys\\lock.h"
 725              		.file 4 "d:\\vsarm\\armcc\\arm-none-eabi\\include\\sys\\_types.h"
 726              		.file 5 "d:\\vsarm\\armcc\\lib\\gcc\\arm-none-eabi\\8.2.1\\include\\stddef.h"
 727              		.file 6 "d:\\vsarm\\armcc\\arm-none-eabi\\include\\sys\\reent.h"
 728              		.file 7 "d:\\vsarm\\armcc\\arm-none-eabi\\include\\sys\\_stdint.h"
 729              		.file 8 "d:\\vsarm\\armcc\\arm-none-eabi\\include\\stdlib.h"
 730              		.file 9 "Drivers/CMSIS/Include/core_cm3.h"
 731              		.file 10 "Drivers/CMSIS/Device/ST/STM32F1xx/Include/system_stm32f1xx.h"
 732              		.file 11 "Drivers/STM32F1xx_HAL_Driver/Inc/stm32f1xx_hal.h"
 733              		.file 12 "Middlewares/ST/STM32_USB_Device_Library/Core/Inc/usbd_def.h"
 734              		.file 13 "Middlewares/ST/STM32_USB_Device_Library/Class/HID/Inc/usbd_hid.h"
 735              		.file 14 "Inc/usbd_desc.h"
 736              		.file 15 "Middlewares/ST/STM32_USB_Device_Library/Core/Inc/usbd_core.h"
 737              		.file 16 "Middlewares/ST/STM32_USB_Device_Library/Core/Inc/usbd_ioreq.h"
 738              		.file 17 "Middlewares/ST/STM32_USB_Device_Library/Core/Inc/usbd_ctlreq.h"
 739              		.file 18 "Inc/usbd_conf.h"
ARM GAS  C:\Users\Eemeli\AppData\Local\Temp\ccp515TO.s 			page 25

